 WebWorkerThreads

 Timestamp is 567aa583 (Wed Dec 23 14:45:39 2015)

 Preferred load address is 10000000

 Start         Length     Name                   Class
 0001:00000000 0000025fH .text                   CODE
 0001:00000260 00000056H .text$di                CODE
 0001:000002c0 0001ebe7H .text$mn                CODE
 0001:0001eeb0 00000021H .text$yd                CODE
 0002:00000000 0000012cH .idata$5                DATA
 0002:0000012c 00000004H .00cfg                  DATA
 0002:00000130 00000004H .CRT$XCA                DATA
 0002:00000134 00000010H .CRT$XCU                DATA
 0002:00000144 00000004H .CRT$XCZ                DATA
 0002:00000148 00000004H .CRT$XIA                DATA
 0002:0000014c 0000000cH .CRT$XIC                DATA
 0002:00000158 00000004H .CRT$XIZ                DATA
 0002:0000015c 00000004H .CRT$XPA                DATA
 0002:00000160 00000008H .CRT$XPX                DATA
 0002:00000168 00000004H .CRT$XPXA               DATA
 0002:0000016c 00000004H .CRT$XPZ                DATA
 0002:00000170 00000004H .CRT$XTA                DATA
 0002:00000174 00000004H .CRT$XTZ                DATA
 0002:00000180 00007ce4H .rdata                  DATA
 0002:00007e64 0000012cH .rdata$r                DATA
 0002:00007f90 0000000cH .rdata$sxdata           DATA
 0002:00007fa0 00000010H .rdata$zETW0            DATA
 0002:00007fb0 00000077H .rdata$zETW1            DATA
 0002:00008027 0000002cH .rdata$zETW2            DATA
 0002:00008053 00000001H .rdata$zETW9            DATA
 0002:00008054 00000458H .rdata$zzzdbg           DATA
 0002:000084ac 00000004H .rtc$IAA                DATA
 0002:000084b0 00000004H .rtc$IZZ                DATA
 0002:000084b4 00000004H .rtc$TAA                DATA
 0002:000084b8 00000004H .rtc$TZZ                DATA
 0002:000084c0 00000690H .xdata$x                DATA
 0002:00008b50 00000020H .didat$2                DATA
 0002:00008b70 00000020H .didat$3                DATA
 0002:00008b90 00000270H .didat$4                DATA
 0002:00008e00 0000233cH .didat$6                DATA
 0002:0000b13c 00000270H .didat$7                DATA
 0002:0000b3b0 000043feH .edata                  DATA
 0002:0000f7b0 00000028H .idata$2                DATA
 0002:0000f7d8 00000014H .idata$3                DATA
 0002:0000f7ec 0000012cH .idata$4                DATA
 0002:0000f918 00000562H .idata$6                DATA
 0003:00000000 00000900H .data                   DATA
 0003:00000900 00000095H .data$r                 DATA
 0003:00000998 00000270H .didat$5                DATA
 0003:00000c08 0000096cH .bss                    DATA
 0004:00000000 0000008cH .gfids$x                DATA
 0004:0000008c 0000004cH .gfids$y                DATA
 0005:00000000 00000058H .rsrc$01                DATA
 0005:00000060 00000180H .rsrc$02                DATA

  Address         Publics by Value              Rva+Base       Lib:Object

 0000:00000000       __except_list              00000000     <absolute>
 0000:00000000       ___guard_longjmp_count     00000000     <absolute>
 0000:00000000       ___guard_fids_count        00000000     <absolute>
 0000:00000000       ___guard_longjmp_table     00000000     <absolute>
 0000:00000000       ___guard_iat_table         00000000     <absolute>
 0000:00000000       ___guard_iat_count         00000000     <absolute>
 0000:00000000       ___guard_fids_table        00000000     <absolute>
 0000:00000003       ___safe_se_handler_count   00000003     <absolute>
 0000:00000100       ___guard_flags             00000100     <absolute>
 0000:00000000       ___ImageBase               10000000     <linker-defined>
 0001:00000000       ?TraceLoggingRegister@__vcrt_trace_logging_provider@@YAJPBU_TlgProvider_t@1@PBU_GUID@@P6GX1KE_K2PAU_EVENT_FILTER_DESCRIPTOR@@PAX@Z4@Z 10001000 f i libvcruntime:telemetry.obj
 0001:0000005d       ?TraceLoggingSetInformation@__vcrt_trace_logging_provider@@YAJPBU_TlgProvider_t@1@W4_EVENT_INFO_CLASS@@PAXK@Z 1000105d f i libvcruntime:telemetry.obj
 0001:00000088       ?TraceLoggingUnregister@__vcrt_trace_logging_provider@@YAXPBU_TlgProvider_t@1@@Z 10001088 f i libvcruntime:telemetry.obj
 0001:000000a7       ?_TlgCreateSz@__vcrt_trace_logging_provider@@YAXPAU_EVENT_DATA_DESCRIPTOR@@PBD@Z 100010a7 f i libvcruntime:telemetry.obj
 0001:000000df       ?_TlgCreateWsz@__vcrt_trace_logging_provider@@YAXPAU_EVENT_DATA_DESCRIPTOR@@PB_W@Z 100010df f i libvcruntime:telemetry.obj
 0001:00000123       ?_TlgEnableCallback@__vcrt_trace_logging_provider@@YGXPBU_GUID@@KE_K1PAU_EVENT_FILTER_DESCRIPTOR@@PAX@Z 10001123 f i libvcruntime:telemetry.obj
 0001:0000019b       ?_TlgKeywordOn@__vcrt_trace_logging_provider@@YAEPBU_TlgProvider_t@1@_K@Z 1000119b f i libvcruntime:telemetry.obj
 0001:000001d7       ?_TlgWrite@__vcrt_trace_logging_provider@@YAJPBU_TlgProvider_t@1@PBXPBU_GUID@@2IPAU_EVENT_DATA_DESCRIPTOR@@@Z 100011d7 f i libvcruntime:telemetry.obj
 0001:000002c0       ___local_stdio_printf_options 100012c0 f i WebWorkerThreads.obj
 0001:000002d0       _fprintf                   100012d0 f i WebWorkerThreads.obj
 0001:00000300       _printf                    10001300 f i WebWorkerThreads.obj
 0001:00000340       __vsnprintf_l              10001340 f i WebWorkerThreads.obj
 0001:00000380       _sprintf                   10001380 f i WebWorkerThreads.obj
 0001:000003c0       ?GetIsolate@HandleScope@v8@@QBEPAVIsolate@2@XZ 100013c0 f i WebWorkerThreads.obj
 0001:000003c0       ?max_semi_space_size@ResourceConstraints@v8@@QBEHXZ 100013c0 f i WebWorkerThreads.obj
 0001:000003c0       ?Data@Contents@SharedArrayBuffer@v8@@QBEPAXXZ 100013c0 f i WebWorkerThreads.obj
 0001:000003c0       ??DUtf8Value@String@v8@@QBEPBDXZ 100013c0 f i WebWorkerThreads.obj
 0001:000003c0       ?total_heap_size@HeapStatistics@v8@@QAEIXZ 100013c0 f i WebWorkerThreads.obj
 0001:000003c0       ??DValue@String@v8@@QBEPBGXZ 100013c0 f i WebWorkerThreads.obj
 0001:000003c0       ?object_type@HeapObjectStatistics@v8@@QAEPBDXZ 100013c0 f i WebWorkerThreads.obj
 0001:000003c0       ?space_name@HeapSpaceStatistics@v8@@QAEPBDXZ 100013c0 f i WebWorkerThreads.obj
 0001:000003c0       ?impl@StreamedSource@ScriptCompiler@v8@@QBEPAU1internal@3@XZ 100013c0 f i WebWorkerThreads.obj
 0001:000003c0       ?Data@Contents@ArrayBuffer@v8@@QBEPAXXZ 100013c0 f i WebWorkerThreads.obj
 0001:000003c0       ??DUtf8Value@String@v8@@QAEPADXZ 100013c0 f i WebWorkerThreads.obj
 0001:000003c0       ??DValue@String@v8@@QAEPAGXZ 100013c0 f i WebWorkerThreads.obj
 0001:000003d0       ??0HandleScope@v8@@IAE@XZ  100013d0 f i WebWorkerThreads.obj
 0001:000003e0       ??1EscapableHandleScope@v8@@QAE@XZ 100013e0 f i WebWorkerThreads.obj
 0001:000003f0       ??4String@v8@@QAEAAV01@$$QAV01@@Z 100013f0 f i WebWorkerThreads.obj
 0001:000003f0       ??4NativeWeakMap@v8@@QAEAAV01@ABV01@@Z 100013f0 f i WebWorkerThreads.obj
 0001:000003f0       ??4ArrayBufferView@v8@@QAEAAV01@ABV01@@Z 100013f0 f i WebWorkerThreads.obj
 0001:000003f0       ??4Script@v8@@QAEAAV01@ABV01@@Z 100013f0 f i WebWorkerThreads.obj
 0001:000003f0       ??4Boolean@v8@@QAEAAV01@ABV01@@Z 100013f0 f i WebWorkerThreads.obj
 0001:000003f0       ??4Template@v8@@QAEAAV01@ABV01@@Z 100013f0 f i WebWorkerThreads.obj
 0001:000003f0       ??4Promise@v8@@QAEAAV01@ABV01@@Z 100013f0 f i WebWorkerThreads.obj
 0001:000003f0       ??4Symbol@v8@@QAEAAV01@ABV01@@Z 100013f0 f i WebWorkerThreads.obj
 0001:000003f0       ??4Date@v8@@QAEAAV01@$$QAV01@@Z 100013f0 f i WebWorkerThreads.obj
 0001:000003f0       ??4V8@v8@@QAEAAV01@ABV01@@Z 100013f0 f i WebWorkerThreads.obj
 0001:000003f0       ??4StringObject@v8@@QAEAAV01@$$QAV01@@Z 100013f0 f i WebWorkerThreads.obj
 0001:000003f0       ??4AccessorSignature@v8@@QAEAAV01@$$QAV01@@Z 100013f0 f i WebWorkerThreads.obj
 0001:000003f0       ??4Signature@v8@@QAEAAV01@$$QAV01@@Z 100013f0 f i WebWorkerThreads.obj
 0001:000003f0       ??4Int8Array@v8@@QAEAAV01@ABV01@@Z 100013f0 f i WebWorkerThreads.obj
 0001:000003f0       ??4Uint32Array@v8@@QAEAAV01@ABV01@@Z 100013f0 f i WebWorkerThreads.obj
 0001:000003f0       ??4ArrayBufferView@v8@@QAEAAV01@$$QAV01@@Z 100013f0 f i WebWorkerThreads.obj
 0001:000003f0       ??4Message@v8@@QAEAAV01@ABV01@@Z 100013f0 f i WebWorkerThreads.obj
 0001:000003f0       ??4Uint8Array@v8@@QAEAAV01@ABV01@@Z 100013f0 f i WebWorkerThreads.obj
 0001:000003f0       ??4Date@v8@@QAEAAV01@ABV01@@Z 100013f0 f i WebWorkerThreads.obj
 0001:000003f0       ??4NumberObject@v8@@QAEAAV01@$$QAV01@@Z 100013f0 f i WebWorkerThreads.obj
 0001:000003f0       ??4Context@v8@@QAEAAV01@$$QAV01@@Z 100013f0 f i WebWorkerThreads.obj
 0001:000003f0       ??4PersistentHandleVisitor@v8@@QAEAAV01@ABV01@@Z 100013f0 f i WebWorkerThreads.obj
 0001:000003f0       ??4Primitive@v8@@QAEAAV01@$$QAV01@@Z 100013f0 f i WebWorkerThreads.obj
 0001:000003f0       ??4TypeSwitch@v8@@QAEAAV01@ABV01@@Z 100013f0 f i WebWorkerThreads.obj
 0001:000003f0       ??4Template@v8@@QAEAAV01@$$QAV01@@Z 100013f0 f i WebWorkerThreads.obj
 0001:000003f0       ??4TypedArray@v8@@QAEAAV01@ABV01@@Z 100013f0 f i WebWorkerThreads.obj
 0001:000003f0       ??4Uint16Array@v8@@QAEAAV01@ABV01@@Z 100013f0 f i WebWorkerThreads.obj
 0001:000003f0       ??4SharedArrayBuffer@v8@@QAEAAV01@$$QAV01@@Z 100013f0 f i WebWorkerThreads.obj
 0001:000003f0       ??4Map@v8@@QAEAAV01@$$QAV01@@Z 100013f0 f i WebWorkerThreads.obj
 0001:000003f0       ??4External@v8@@QAEAAV01@$$QAV01@@Z 100013f0 f i WebWorkerThreads.obj
 0001:000003f0       ??4Int8Array@v8@@QAEAAV01@$$QAV01@@Z 100013f0 f i WebWorkerThreads.obj
 0001:000003f0       ??4Promise@v8@@QAEAAV01@$$QAV01@@Z 100013f0 f i WebWorkerThreads.obj
 0001:000003f0       ??4Signature@v8@@QAEAAV01@ABV01@@Z 100013f0 f i WebWorkerThreads.obj
 0001:000003f0       ??4NativeWeakMap@v8@@QAEAAV01@$$QAV01@@Z 100013f0 f i WebWorkerThreads.obj
 0001:000003f0       ??4SymbolObject@v8@@QAEAAV01@$$QAV01@@Z 100013f0 f i WebWorkerThreads.obj
 0001:000003f0       ??4RegExp@v8@@QAEAAV01@ABV01@@Z 100013f0 f i WebWorkerThreads.obj
 0001:000003f0       ??4Integer@v8@@QAEAAV01@$$QAV01@@Z 100013f0 f i WebWorkerThreads.obj
 0001:000003f0       ??4SymbolObject@v8@@QAEAAV01@ABV01@@Z 100013f0 f i WebWorkerThreads.obj
 0001:000003f0       ??4Float64Array@v8@@QAEAAV01@$$QAV01@@Z 100013f0 f i WebWorkerThreads.obj
 0001:000003f0       ??4Integer@v8@@QAEAAV01@ABV01@@Z 100013f0 f i WebWorkerThreads.obj
 0001:000003f0       ??4SharedArrayBuffer@v8@@QAEAAV01@ABV01@@Z 100013f0 f i WebWorkerThreads.obj
 0001:000003f0       ??4Data@v8@@QAEAAV01@ABV01@@Z 100013f0 f i WebWorkerThreads.obj
 0001:000003f0       ??4Uint32@v8@@QAEAAV01@$$QAV01@@Z 100013f0 f i WebWorkerThreads.obj
 0001:000003f0       ??4Resolver@Promise@v8@@QAEAAV012@$$QAV012@@Z 100013f0 f i WebWorkerThreads.obj
 0001:000003f0       ??4RegExp@v8@@QAEAAV01@$$QAV01@@Z 100013f0 f i WebWorkerThreads.obj
 0001:000003f0       ??4ScriptCompiler@v8@@QAEAAV01@ABV01@@Z 100013f0 f i WebWorkerThreads.obj
 0001:000003f0       ??4Set@v8@@QAEAAV01@$$QAV01@@Z 100013f0 f i WebWorkerThreads.obj
 0001:000003f0       ??4Float32Array@v8@@QAEAAV01@ABV01@@Z 100013f0 f i WebWorkerThreads.obj
 0001:000003f0       ??4Exception@v8@@QAEAAV01@$$QAV01@@Z 100013f0 f i WebWorkerThreads.obj
 0001:000003f0       ??4Int16Array@v8@@QAEAAV01@ABV01@@Z 100013f0 f i WebWorkerThreads.obj
 0001:000003f0       ??4Symbol@v8@@QAEAAV01@$$QAV01@@Z 100013f0 f i WebWorkerThreads.obj
 0001:000003f0       ??4AccessorSignature@v8@@QAEAAV01@ABV01@@Z 100013f0 f i WebWorkerThreads.obj
 0001:000003f0       ??4Script@v8@@QAEAAV01@$$QAV01@@Z 100013f0 f i WebWorkerThreads.obj
 0001:000003f0       ??4Exception@v8@@QAEAAV01@ABV01@@Z 100013f0 f i WebWorkerThreads.obj
 0001:000003f0       ??4Float64Array@v8@@QAEAAV01@ABV01@@Z 100013f0 f i WebWorkerThreads.obj
 0001:000003f0       ??4ObjectTemplate@v8@@QAEAAV01@$$QAV01@@Z 100013f0 f i WebWorkerThreads.obj
 0001:000003f0       ??4ExternalSourceStream@ScriptCompiler@v8@@QAEAAV012@ABV012@@Z 100013f0 f i WebWorkerThreads.obj
 0001:000003f0       ??4Int32Array@v8@@QAEAAV01@$$QAV01@@Z 100013f0 f i WebWorkerThreads.obj
 0001:000003f0       ??4FunctionTemplate@v8@@QAEAAV01@ABV01@@Z 100013f0 f i WebWorkerThreads.obj
 0001:000003f0       ??4TypeSwitch@v8@@QAEAAV01@$$QAV01@@Z 100013f0 f i WebWorkerThreads.obj
 0001:000003f0       ??4Uint32@v8@@QAEAAV01@ABV01@@Z 100013f0 f i WebWorkerThreads.obj
 0001:000003f0       ??4Value@v8@@QAEAAV01@$$QAV01@@Z 100013f0 f i WebWorkerThreads.obj
 0001:000003f0       ??4Int32@v8@@QAEAAV01@$$QAV01@@Z 100013f0 f i WebWorkerThreads.obj
 0001:000003f0       ??4String@v8@@QAEAAV01@ABV01@@Z 100013f0 f i WebWorkerThreads.obj
 0001:000003f0       ??4ArrayBuffer@v8@@QAEAAV01@$$QAV01@@Z 100013f0 f i WebWorkerThreads.obj
 0001:000003f0       ??4Int16Array@v8@@QAEAAV01@$$QAV01@@Z 100013f0 f i WebWorkerThreads.obj
 0001:000003f0       ??4DataView@v8@@QAEAAV01@$$QAV01@@Z 100013f0 f i WebWorkerThreads.obj
 0001:000003f0       ??4StackFrame@v8@@QAEAAV01@$$QAV01@@Z 100013f0 f i WebWorkerThreads.obj
 0001:000003f0       ??4DataView@v8@@QAEAAV01@ABV01@@Z 100013f0 f i WebWorkerThreads.obj
 0001:000003f0       ??4Int32Array@v8@@QAEAAV01@ABV01@@Z 100013f0 f i WebWorkerThreads.obj
 0001:000003f0       ??4Allocator@ArrayBuffer@v8@@QAEAAV012@ABV012@@Z 100013f0 f i WebWorkerThreads.obj
 0001:000003f0       ??4Name@v8@@QAEAAV01@$$QAV01@@Z 100013f0 f i WebWorkerThreads.obj
 0001:000003f0       ??4Uint32Array@v8@@QAEAAV01@$$QAV01@@Z 100013f0 f i WebWorkerThreads.obj
 0001:000003f0       ??4NumberObject@v8@@QAEAAV01@ABV01@@Z 100013f0 f i WebWorkerThreads.obj
 0001:000003f0       ??4Value@v8@@QAEAAV01@ABV01@@Z 100013f0 f i WebWorkerThreads.obj
 0001:000003f0       ??4JSON@v8@@QAEAAV01@$$QAV01@@Z 100013f0 f i WebWorkerThreads.obj
 0001:000003f0       ??4UnboundScript@v8@@QAEAAV01@$$QAV01@@Z 100013f0 f i WebWorkerThreads.obj
 0001:000003f0       ??4Resolver@Promise@v8@@QAEAAV012@ABV012@@Z 100013f0 f i WebWorkerThreads.obj
 0001:000003f0       ??4Map@v8@@QAEAAV01@ABV01@@Z 100013f0 f i WebWorkerThreads.obj
 0001:000003f0       ??4Function@v8@@QAEAAV01@ABV01@@Z 100013f0 f i WebWorkerThreads.obj
 0001:000003f0       ??4Uint8ClampedArray@v8@@QAEAAV01@ABV01@@Z 100013f0 f i WebWorkerThreads.obj
 0001:000003f0       ??4Data@v8@@QAEAAV01@$$QAV01@@Z 100013f0 f i WebWorkerThreads.obj
 0001:000003f0       ??4BooleanObject@v8@@QAEAAV01@ABV01@@Z 100013f0 f i WebWorkerThreads.obj
 0001:000003f0       ??4Name@v8@@QAEAAV01@ABV01@@Z 100013f0 f i WebWorkerThreads.obj
 0001:000003f0       ??4Message@v8@@QAEAAV01@$$QAV01@@Z 100013f0 f i WebWorkerThreads.obj
 0001:000003f0       ??4Uint8ClampedArray@v8@@QAEAAV01@$$QAV01@@Z 100013f0 f i WebWorkerThreads.obj
 0001:000003f0       ??4BooleanObject@v8@@QAEAAV01@$$QAV01@@Z 100013f0 f i WebWorkerThreads.obj
 0001:000003f0       ??4Number@v8@@QAEAAV01@ABV01@@Z 100013f0 f i WebWorkerThreads.obj
 0001:000003f0       ??4JSON@v8@@QAEAAV01@ABV01@@Z 100013f0 f i WebWorkerThreads.obj
 0001:000003f0       ??4Object@v8@@QAEAAV01@$$QAV01@@Z 100013f0 f i WebWorkerThreads.obj
 0001:000003f0       ??4Object@v8@@QAEAAV01@ABV01@@Z 100013f0 f i WebWorkerThreads.obj
 0001:000003f0       ??4ObjectTemplate@v8@@QAEAAV01@ABV01@@Z 100013f0 f i WebWorkerThreads.obj
 0001:000003f0       ??4External@v8@@QAEAAV01@ABV01@@Z 100013f0 f i WebWorkerThreads.obj
 0001:000003f0       ??4StackTrace@v8@@QAEAAV01@ABV01@@Z 100013f0 f i WebWorkerThreads.obj
 0001:000003f0       ??4StringObject@v8@@QAEAAV01@ABV01@@Z 100013f0 f i WebWorkerThreads.obj
 0001:000003f0       ??4TypedArray@v8@@QAEAAV01@$$QAV01@@Z 100013f0 f i WebWorkerThreads.obj
 0001:000003f0       ??4Context@v8@@QAEAAV01@ABV01@@Z 100013f0 f i WebWorkerThreads.obj
 0001:000003f0       ??4Array@v8@@QAEAAV01@ABV01@@Z 100013f0 f i WebWorkerThreads.obj
 0001:000003f0       ??4UnboundScript@v8@@QAEAAV01@ABV01@@Z 100013f0 f i WebWorkerThreads.obj
 0001:000003f0       ??4FunctionTemplate@v8@@QAEAAV01@$$QAV01@@Z 100013f0 f i WebWorkerThreads.obj
 0001:000003f0       ??4Number@v8@@QAEAAV01@$$QAV01@@Z 100013f0 f i WebWorkerThreads.obj
 0001:000003f0       ??4Boolean@v8@@QAEAAV01@$$QAV01@@Z 100013f0 f i WebWorkerThreads.obj
 0001:000003f0       ??4Float32Array@v8@@QAEAAV01@$$QAV01@@Z 100013f0 f i WebWorkerThreads.obj
 0001:000003f0       ??4Int32@v8@@QAEAAV01@ABV01@@Z 100013f0 f i WebWorkerThreads.obj
 0001:000003f0       ??4Array@v8@@QAEAAV01@$$QAV01@@Z 100013f0 f i WebWorkerThreads.obj
 0001:000003f0       ??4V8@v8@@QAEAAV01@$$QAV01@@Z 100013f0 f i WebWorkerThreads.obj
 0001:000003f0       ??4Uint8Array@v8@@QAEAAV01@$$QAV01@@Z 100013f0 f i WebWorkerThreads.obj
 0001:000003f0       ??4StackTrace@v8@@QAEAAV01@$$QAV01@@Z 100013f0 f i WebWorkerThreads.obj
 0001:000003f0       ??4Set@v8@@QAEAAV01@ABV01@@Z 100013f0 f i WebWorkerThreads.obj
 0001:000003f0       ??4Primitive@v8@@QAEAAV01@ABV01@@Z 100013f0 f i WebWorkerThreads.obj
 0001:000003f0       ??4ArrayBuffer@v8@@QAEAAV01@ABV01@@Z 100013f0 f i WebWorkerThreads.obj
 0001:000003f0       ??4StackFrame@v8@@QAEAAV01@ABV01@@Z 100013f0 f i WebWorkerThreads.obj
 0001:000003f0       ??4Function@v8@@QAEAAV01@$$QAV01@@Z 100013f0 f i WebWorkerThreads.obj
 0001:000003f0       ??4Uint16Array@v8@@QAEAAV01@$$QAV01@@Z 100013f0 f i WebWorkerThreads.obj
 0001:000003f0       ??4ExternalResourceVisitor@v8@@QAEAAV01@ABV01@@Z 100013f0 f i WebWorkerThreads.obj
 0001:000003f0       ??4ScriptCompiler@v8@@QAEAAV01@$$QAV01@@Z 100013f0 f i WebWorkerThreads.obj
 0001:00000400       ?GetId@Script@v8@@QAEHXZ   10001400 f i WebWorkerThreads.obj
 0001:00000420       ??0CachedData@ScriptCompiler@v8@@QAE@XZ 10001420 f i WebWorkerThreads.obj
 0001:00000440       ??1ExternalSourceStream@ScriptCompiler@v8@@UAE@XZ 10001440 f i WebWorkerThreads.obj
 0001:00000450       ??0ExternalSourceStream@ScriptCompiler@v8@@QAE@XZ 10001450 f i WebWorkerThreads.obj
 0001:00000460       ??0ExternalSourceStream@ScriptCompiler@v8@@QAE@ABV012@@Z 10001460 f i WebWorkerThreads.obj
 0001:00000470       ??_EExternalSourceStream@ScriptCompiler@v8@@UAEPAXI@Z 10001470 f i WebWorkerThreads.obj
 0001:000004e0       ??1ExternalOneByteStringResource@String@v8@@UAE@XZ 100014e0 f i WebWorkerThreads.obj
 0001:000004e0       ??1ExternalStringResource@String@v8@@UAE@XZ 100014e0 f i WebWorkerThreads.obj
 0001:000004e0       ??1ExternalOneByteStringResourceImpl@v8@@UAE@XZ 100014e0 f i WebWorkerThreads.obj
 0001:000004e0       ??1ExternalStringResourceBase@String@v8@@UAE@XZ 100014e0 f i WebWorkerThreads.obj
 0001:000004f0       ??0ExternalStringResourceBase@String@v8@@IAE@XZ 100014f0 f i WebWorkerThreads.obj
 0001:00000500       ?Dispose@ExternalStringResourceBase@String@v8@@MAEXXZ 10001500 f i WebWorkerThreads.obj
 0001:00000510       ??0ExternalOneByteStringResource@String@v8@@IAE@XZ 10001510 f i WebWorkerThreads.obj
 0001:00000510       ??0ExternalStringResource@String@v8@@IAE@XZ 10001510 f i WebWorkerThreads.obj
 0001:00000520       ?ByteLength@Contents@SharedArrayBuffer@v8@@QBEIXZ 10001520 f i WebWorkerThreads.obj
 0001:00000520       ?length@Value@String@v8@@QBEHXZ 10001520 f i WebWorkerThreads.obj
 0001:00000520       ?ByteLength@Contents@ArrayBuffer@v8@@QBEIXZ 10001520 f i WebWorkerThreads.obj
 0001:00000520       ?data@ExternalOneByteStringResourceImpl@v8@@UBEPBDXZ 10001520 f i WebWorkerThreads.obj
 0001:00000520       ?name@Extension@v8@@QBEPBDXZ 10001520 f i WebWorkerThreads.obj
 0001:00000520       ?begin@ExtensionConfiguration@v8@@QBEPAPBDXZ 10001520 f i WebWorkerThreads.obj
 0001:00000520       ?total_heap_size_executable@HeapStatistics@v8@@QAEIXZ 10001520 f i WebWorkerThreads.obj
 0001:00000520       ?length@Utf8Value@String@v8@@QBEHXZ 10001520 f i WebWorkerThreads.obj
 0001:00000520       ?object_sub_type@HeapObjectStatistics@v8@@QAEPBDXZ 10001520 f i WebWorkerThreads.obj
 0001:00000520       ?space_size@HeapSpaceStatistics@v8@@QAEIXZ 10001520 f i WebWorkerThreads.obj
 0001:00000520       ?max_old_space_size@ResourceConstraints@v8@@QBEHXZ 10001520 f i WebWorkerThreads.obj
 0001:00000530       ?InternalFieldCount@Object@v8@@SAHABV?$PersistentBase@VObject@v8@@@2@@Z 10001530 f i WebWorkerThreads.obj
 0001:00000540       ?GetAlignedPointerFromInternalField@Object@v8@@SAPAXABV?$PersistentBase@VObject@v8@@@2@H@Z 10001540 f i WebWorkerThreads.obj
 0001:00000570       ?NewInstance@Function@v8@@QBE?AV?$MaybeLocal@VObject@v8@@@2@V?$Local@VContext@v8@@@2@@Z 10001570 f i WebWorkerThreads.obj
 0001:00000590       ??1Allocator@ArrayBuffer@v8@@UAE@XZ 10001590 f i WebWorkerThreads.obj
 0001:000005a0       ??0ExtensionConfiguration@v8@@QAE@XZ 100015a0 f i WebWorkerThreads.obj
 0001:000005a0       ??0Contents@SharedArrayBuffer@v8@@QAE@XZ 100015a0 f i WebWorkerThreads.obj
 0001:000005a0       ??0Contents@ArrayBuffer@v8@@QAE@XZ 100015a0 f i WebWorkerThreads.obj
 0001:000005b0       ?SetIndexedPropertyHandler@ObjectTemplate@v8@@QAEXP6AXIABV?$PropertyCallbackInfo@VValue@v8@@@2@@ZP6AXIV?$Local@VValue@v8@@@2@0@ZP6AXIABV?$PropertyCallbackInfo@VInteger@v8@@@2@@ZP6AXIABV?$PropertyCallbackInfo@VBoolean@v8@@@2@@ZP6AXABV?$PropertyCallbackInfo@VArray@v8@@@2@@Z2@Z 100015b0 f i WebWorkerThreads.obj
 0001:00000600       ??0ExternalOneByteStringResourceImpl@v8@@QAE@XZ 10001600 f i WebWorkerThreads.obj
 0001:00000620       ??0ExternalOneByteStringResourceImpl@v8@@QAE@PBDI@Z 10001620 f i WebWorkerThreads.obj
 0001:00000640       ?space_used_size@HeapSpaceStatistics@v8@@QAEIXZ 10001640 f i WebWorkerThreads.obj
 0001:00000640       ?length@ExternalOneByteStringResourceImpl@v8@@UBEIXZ 10001640 f i WebWorkerThreads.obj
 0001:00000640       ?total_physical_size@HeapStatistics@v8@@QAEIXZ 10001640 f i WebWorkerThreads.obj
 0001:00000640       ?source_length@Extension@v8@@QBEIXZ 10001640 f i WebWorkerThreads.obj
 0001:00000640       ?object_count@HeapObjectStatistics@v8@@QAEIXZ 10001640 f i WebWorkerThreads.obj
 0001:00000640       ?max_executable_size@ResourceConstraints@v8@@QBEHXZ 10001640 f i WebWorkerThreads.obj
 0001:00000650       ??1Extension@v8@@UAE@XZ    10001650 f i WebWorkerThreads.obj
 0001:00000660       ?GetNativeFunctionTemplate@Extension@v8@@UAE?AV?$Local@VFunctionTemplate@v8@@@2@PAVIsolate@2@V?$Local@VString@v8@@@2@@Z 10001660 f i WebWorkerThreads.obj
 0001:00000670       ?source@Extension@v8@@QBEPBVExternalOneByteStringResource@String@2@XZ 10001670 f i WebWorkerThreads.obj
 0001:00000680       ?dependency_count@Extension@v8@@QAEHXZ 10001680 f i WebWorkerThreads.obj
 0001:00000690       ?dependencies@Extension@v8@@QAEPAPBDXZ 10001690 f i WebWorkerThreads.obj
 0001:000006a0       ?set_auto_enable@Extension@v8@@QAEX_N@Z 100016a0 f i WebWorkerThreads.obj
 0001:000006b0       ?auto_enable@Extension@v8@@QAE_NXZ 100016b0 f i WebWorkerThreads.obj
 0001:000006c0       ?set_max_semi_space_size@ResourceConstraints@v8@@QAEXH@Z 100016c0 f i WebWorkerThreads.obj
 0001:000006d0       ?set_max_old_space_size@ResourceConstraints@v8@@QAEXH@Z 100016d0 f i WebWorkerThreads.obj
 0001:000006e0       ?set_max_executable_size@ResourceConstraints@v8@@QAEXH@Z 100016e0 f i WebWorkerThreads.obj
 0001:000006f0       ?total_available_size@HeapStatistics@v8@@QAEIXZ 100016f0 f i WebWorkerThreads.obj
 0001:000006f0       ?object_size@HeapObjectStatistics@v8@@QAEIXZ 100016f0 f i WebWorkerThreads.obj
 0001:000006f0       ?stack_limit@ResourceConstraints@v8@@QBEPAIXZ 100016f0 f i WebWorkerThreads.obj
 0001:000006f0       ?space_available_size@HeapSpaceStatistics@v8@@QAEIXZ 100016f0 f i WebWorkerThreads.obj
 0001:00000700       ?set_stack_limit@ResourceConstraints@v8@@QAEXPAI@Z 10001700 f i WebWorkerThreads.obj
 0001:00000710       ?physical_space_size@HeapSpaceStatistics@v8@@QAEIXZ 10001710 f i WebWorkerThreads.obj
 0001:00000710       ?max_available_threads@ResourceConstraints@v8@@QBEHXZ 10001710 f i WebWorkerThreads.obj
 0001:00000710       ?used_heap_size@HeapStatistics@v8@@QAEIXZ 10001710 f i WebWorkerThreads.obj
 0001:00000720       ?set_max_available_threads@ResourceConstraints@v8@@QAEXH@Z 10001720 f i WebWorkerThreads.obj
 0001:00000730       ?code_range_size@ResourceConstraints@v8@@QBEIXZ 10001730 f i WebWorkerThreads.obj
 0001:00000730       ?heap_size_limit@HeapStatistics@v8@@QAEIXZ 10001730 f i WebWorkerThreads.obj
 0001:00000740       ?set_code_range_size@ResourceConstraints@v8@@QAEXI@Z 10001740 f i WebWorkerThreads.obj
 0001:00000750       ??1ExternalResourceVisitor@v8@@UAE@XZ 10001750 f i WebWorkerThreads.obj
 0001:00000760       ?VisitExternalString@ExternalResourceVisitor@v8@@UAEXV?$Local@VString@v8@@@2@@Z 10001760 f i WebWorkerThreads.obj
 0001:00000770       ??1PersistentHandleVisitor@v8@@UAE@XZ 10001770 f i WebWorkerThreads.obj
 0001:00000780       ?VisitPersistentHandle@PersistentHandleVisitor@v8@@UAEXPAV?$Persistent@VValue@v8@@V?$NonCopyablePersistentTraits@VValue@v8@@@2@@2@G@Z 10001780 f i WebWorkerThreads.obj
 0001:00000790       ??0Scope@Isolate@v8@@QAE@PAV12@@Z 10001790 f i WebWorkerThreads.obj
 0001:000007b0       ??1Scope@Isolate@v8@@QAE@XZ 100017b0 f i WebWorkerThreads.obj
 0001:000007c0       ?JSStackComparableAddress@TryCatch@v8@@SAPAXPAV12@@Z 100017c0 f i WebWorkerThreads.obj
 0001:000007d0       ??0ExtensionConfiguration@v8@@QAE@HQAPBD@Z 100017d0 f i WebWorkerThreads.obj
 0001:000007f0       ?end@ExtensionConfiguration@v8@@QBEPAPBDXZ 100017f0 f i WebWorkerThreads.obj
 0001:00000800       ??0Unlocker@v8@@QAE@PAVIsolate@1@@Z 10001800 f i WebWorkerThreads.obj
 0001:00000820       ??0Locker@v8@@QAE@PAVIsolate@1@@Z 10001820 f i WebWorkerThreads.obj
 0001:00000840       ?New@Boolean@v8@@SA?AV?$Local@VBoolean@v8@@@2@PAVIsolate@2@_N@Z 10001840 f i WebWorkerThreads.obj
 0001:00000860       ?Set@Template@v8@@QAEXPAVIsolate@2@PBDV?$Local@VData@v8@@@2@@Z 10001860 f i WebWorkerThreads.obj
 0001:000008b0       ?GetInternalField@Object@v8@@QAE?AV?$Local@VValue@v8@@@2@H@Z 100018b0 f i WebWorkerThreads.obj
 0001:000008f0       ?GetAlignedPointerFromInternalField@Object@v8@@QAEPAXH@Z 100018f0 f i WebWorkerThreads.obj
 0001:00000910       ?Cast@StringObject@v8@@SAPAV12@PAVValue@2@@Z 10001910 f i WebWorkerThreads.obj
 0001:00000910       ?Cast@DataView@v8@@SAPAV12@PAVValue@2@@Z 10001910 f i WebWorkerThreads.obj
 0001:00000910       ?Cast@Uint8ClampedArray@v8@@SAPAV12@PAVValue@2@@Z 10001910 f i WebWorkerThreads.obj
 0001:00000910       ?Cast@Int32Array@v8@@SAPAV12@PAVValue@2@@Z 10001910 f i WebWorkerThreads.obj
 0001:00000910       ?Cast@Int8Array@v8@@SAPAV12@PAVValue@2@@Z 10001910 f i WebWorkerThreads.obj
 0001:00000910       ?Cast@Float64Array@v8@@SAPAV12@PAVValue@2@@Z 10001910 f i WebWorkerThreads.obj
 0001:00000910       ?Cast@String@v8@@SAPAV12@PAVValue@2@@Z 10001910 f i WebWorkerThreads.obj
 0001:00000910       ?Cast@ArrayBufferView@v8@@SAPAV12@PAVValue@2@@Z 10001910 f i WebWorkerThreads.obj
 0001:00000910       ?Cast@Number@v8@@SAPAV12@PAVValue@2@@Z 10001910 f i WebWorkerThreads.obj
 0001:00000910       ?Cast@SharedArrayBuffer@v8@@SAPAV12@PAVValue@2@@Z 10001910 f i WebWorkerThreads.obj
 0001:00000910       ?Cast@NumberObject@v8@@SAPAV12@PAVValue@2@@Z 10001910 f i WebWorkerThreads.obj
 0001:00000910       ?Cast@Uint32Array@v8@@SAPAV12@PAVValue@2@@Z 10001910 f i WebWorkerThreads.obj
 0001:00000910       ?Cast@BooleanObject@v8@@SAPAV12@PAVValue@2@@Z 10001910 f i WebWorkerThreads.obj
 0001:00000910       ?Cast@Object@v8@@SAPAV12@PAVValue@2@@Z 10001910 f i WebWorkerThreads.obj
 0001:00000910       ?Cast@Float32Array@v8@@SAPAV12@PAVValue@2@@Z 10001910 f i WebWorkerThreads.obj
 0001:00000910       ?Cast@Uint16Array@v8@@SAPAV12@PAVValue@2@@Z 10001910 f i WebWorkerThreads.obj
 0001:00000910       ?Cast@Set@v8@@SAPAV12@PAVValue@2@@Z 10001910 f i WebWorkerThreads.obj
 0001:00000910       ?Cast@Integer@v8@@SAPAV12@PAVValue@2@@Z 10001910 f i WebWorkerThreads.obj
 0001:00000910       ?Cast@RegExp@v8@@SAPAV12@PAVValue@2@@Z 10001910 f i WebWorkerThreads.obj
 0001:00000910       ?Cast@TypedArray@v8@@SAPAV12@PAVValue@2@@Z 10001910 f i WebWorkerThreads.obj
 0001:00000910       ?Cast@External@v8@@SAPAV12@PAVValue@2@@Z 10001910 f i WebWorkerThreads.obj
 0001:00000910       ?Cast@Int32@v8@@SAPAV12@PAVValue@2@@Z 10001910 f i WebWorkerThreads.obj
 0001:00000910       ?Cast@Map@v8@@SAPAV12@PAVValue@2@@Z 10001910 f i WebWorkerThreads.obj
 0001:00000910       ?Cast@Uint32@v8@@SAPAV12@PAVValue@2@@Z 10001910 f i WebWorkerThreads.obj
 0001:00000910       ?Cast@Promise@v8@@SAPAV12@PAVValue@2@@Z 10001910 f i WebWorkerThreads.obj
 0001:00000910       ?Cast@ArrayBuffer@v8@@SAPAV12@PAVValue@2@@Z 10001910 f i WebWorkerThreads.obj
 0001:00000910       ?Cast@Function@v8@@SAPAV12@PAVValue@2@@Z 10001910 f i WebWorkerThreads.obj
 0001:00000910       ?Cast@Uint8Array@v8@@SAPAV12@PAVValue@2@@Z 10001910 f i WebWorkerThreads.obj
 0001:00000910       ?Cast@Symbol@v8@@SAPAV12@PAVValue@2@@Z 10001910 f i WebWorkerThreads.obj
 0001:00000910       ?Cast@Boolean@v8@@SAPAV12@PAVValue@2@@Z 10001910 f i WebWorkerThreads.obj
 0001:00000910       ?Cast@Date@v8@@SAPAV12@PAVValue@2@@Z 10001910 f i WebWorkerThreads.obj
 0001:00000910       ?Cast@SymbolObject@v8@@SAPAV12@PAVValue@2@@Z 10001910 f i WebWorkerThreads.obj
 0001:00000910       ?Cast@Int16Array@v8@@SAPAV12@PAVValue@2@@Z 10001910 f i WebWorkerThreads.obj
 0001:00000910       ?Cast@Name@v8@@SAPAV12@PAVValue@2@@Z 10001910 f i WebWorkerThreads.obj
 0001:00000910       ?Cast@Resolver@Promise@v8@@SAPAV123@PAVValue@3@@Z 10001910 f i WebWorkerThreads.obj
 0001:00000910       ?Cast@Array@v8@@SAPAV12@PAVValue@2@@Z 10001910 f i WebWorkerThreads.obj
 0001:00000920       ?Empty@String@v8@@SA?AV?$Local@VString@v8@@@2@PAVIsolate@2@@Z 10001920 f i WebWorkerThreads.obj
 0001:00000930       ?GetExternalStringResource@String@v8@@QBEPAVExternalStringResource@12@XZ 10001930 f i WebWorkerThreads.obj
 0001:00000950       ?GetExternalStringResourceBase@String@v8@@QBEPAVExternalStringResourceBase@12@PAW4Encoding@12@@Z 10001950 f i WebWorkerThreads.obj
 0001:00000980       ?IsUndefined@Value@v8@@QBE_NXZ 10001980 f i WebWorkerThreads.obj
 0001:000009b0       ?QuickIsUndefined@Value@v8@@ABE_NXZ 100019b0 f i WebWorkerThreads.obj
 0001:000009e0       ?IsNull@Value@v8@@QBE_NXZ  100019e0 f i WebWorkerThreads.obj
 0001:00000a10       ?QuickIsNull@Value@v8@@ABE_NXZ 10001a10 f i WebWorkerThreads.obj
 0001:00000a40       ?IsString@Value@v8@@QBE_NXZ 10001a40 f i WebWorkerThreads.obj
 0001:00000a70       ?QuickIsString@Value@v8@@ABE_NXZ 10001a70 f i WebWorkerThreads.obj
 0001:00000aa0       ?ToBoolean@Value@v8@@QBE?AV?$Local@VBoolean@v8@@@2@XZ 10001aa0 f i WebWorkerThreads.obj
 0001:00000ae0       ?ToNumber@Value@v8@@QBE?AV?$Local@VNumber@v8@@@2@XZ 10001ae0 f i WebWorkerThreads.obj
 0001:00000b20       ?ToString@Value@v8@@QBE?AV?$Local@VString@v8@@@2@XZ 10001b20 f i WebWorkerThreads.obj
 0001:00000b60       ?ToDetailString@Value@v8@@QBE?AV?$Local@VString@v8@@@2@XZ 10001b60 f i WebWorkerThreads.obj
 0001:00000ba0       ?ToObject@Value@v8@@QBE?AV?$Local@VObject@v8@@@2@XZ 10001ba0 f i WebWorkerThreads.obj
 0001:00000be0       ?ToInteger@Value@v8@@QBE?AV?$Local@VInteger@v8@@@2@XZ 10001be0 f i WebWorkerThreads.obj
 0001:00000c20       ?ToUint32@Value@v8@@QBE?AV?$Local@VUint32@v8@@@2@XZ 10001c20 f i WebWorkerThreads.obj
 0001:00000c60       ?ToInt32@Value@v8@@QBE?AV?$Local@VInt32@v8@@@2@XZ 10001c60 f i WebWorkerThreads.obj
 0001:00000ca0       ?SetData@Isolate@v8@@QAEXIPAX@Z 10001ca0 f i WebWorkerThreads.obj
 0001:00000cb0       ?GetData@Isolate@v8@@QAEPAXI@Z 10001cb0 f i WebWorkerThreads.obj
 0001:00000cc0       ?GetNumberOfDataSlots@Isolate@v8@@SAIXZ 10001cc0 f i WebWorkerThreads.obj
 0001:00000cd0       ?AdjustAmountOfExternalAllocatedMemory@Isolate@v8@@QAE_J_J@Z 10001cd0 f i WebWorkerThreads.obj
 0001:00000d30       ?GetEmbedderData@Context@v8@@QAE?AV?$Local@VValue@v8@@@2@H@Z 10001d30 f i WebWorkerThreads.obj
 0001:00000d60       ?GetAlignedPointerFromEmbedderData@Context@v8@@QAEPAXH@Z 10001d60 f i WebWorkerThreads.obj
 0001:00000d80       ?SetAllowCodeGenerationFromStringsCallback@V8@v8@@SAXP6A_NV?$Local@VContext@v8@@@2@@Z@Z 10001d80 f i WebWorkerThreads.obj
 0001:00000da0       ?IsDead@V8@v8@@SA_NXZ      10001da0 f i WebWorkerThreads.obj
 0001:00000db0       ?AddMessageListener@V8@v8@@SA_NP6AXV?$Local@VMessage@v8@@@2@V?$Local@VValue@v8@@@2@@Z1@Z 10001db0 f i WebWorkerThreads.obj
 0001:00000dd0       ?RemoveMessageListeners@V8@v8@@SAXP6AXV?$Local@VMessage@v8@@@2@V?$Local@VValue@v8@@@2@@Z@Z 10001dd0 f i WebWorkerThreads.obj
 0001:00000df0       ?SetFailedAccessCheckCallbackFunction@V8@v8@@SAXP6AXV?$Local@VObject@v8@@@2@W4AccessType@2@V?$Local@VValue@v8@@@2@@Z@Z 10001df0 f i WebWorkerThreads.obj
 0001:00000e10       ?SetCaptureStackTraceForUncaughtExceptions@V8@v8@@SAX_NHW4StackTraceOptions@StackTrace@2@@Z 10001e10 f i WebWorkerThreads.obj
 0001:00000e30       ?SetFatalErrorHandler@V8@v8@@SAXP6AXPBD0@Z@Z 10001e30 f i WebWorkerThreads.obj
 0001:00000e50       ?RemoveGCPrologueCallback@V8@v8@@SAXP6AXW4GCType@2@W4GCCallbackFlags@2@@Z@Z 10001e50 f i WebWorkerThreads.obj
 0001:00000e70       ?RemoveGCEpilogueCallback@V8@v8@@SAXP6AXW4GCType@2@W4GCCallbackFlags@2@@Z@Z 10001e70 f i WebWorkerThreads.obj
 0001:00000e90       ?AddMemoryAllocationCallback@V8@v8@@SAXP6AXW4ObjectSpace@2@W4AllocationAction@2@H@Z01@Z 10001e90 f i WebWorkerThreads.obj
 0001:00000eb0       ?RemoveMemoryAllocationCallback@V8@v8@@SAXP6AXW4ObjectSpace@2@W4AllocationAction@2@H@Z@Z 10001eb0 f i WebWorkerThreads.obj
 0001:00000ed0       ?TerminateExecution@V8@v8@@SAXPAVIsolate@2@@Z 10001ed0 f i WebWorkerThreads.obj
 0001:00000ee0       ?IsExecutionTerminating@V8@v8@@SA_NPAVIsolate@2@@Z 10001ee0 f i WebWorkerThreads.obj
 0001:00000f00       ?CancelTerminateExecution@V8@v8@@SAXPAVIsolate@2@@Z 10001f00 f i WebWorkerThreads.obj
 0001:00000f10       ?VisitExternalResources@V8@v8@@SAXPAVExternalResourceVisitor@2@@Z 10001f10 f i WebWorkerThreads.obj
 0001:00000f30       ?VisitHandlesWithClassIds@V8@v8@@SAXPAVPersistentHandleVisitor@2@@Z 10001f30 f i WebWorkerThreads.obj
 0001:00000f50       ?VisitHandlesWithClassIds@V8@v8@@SAXPAVIsolate@2@PAVPersistentHandleVisitor@2@@Z 10001f50 f i WebWorkerThreads.obj
 0001:00000f60       ?VisitHandlesForPartialDependence@V8@v8@@SAXPAVIsolate@2@PAVPersistentHandleVisitor@2@@Z 10001f60 f i WebWorkerThreads.obj
 0001:00000f70       ??_EExternalOneByteStringResource@String@v8@@UAEPAXI@Z 10001f70 f i WebWorkerThreads.obj
 0001:00000f70       ??_EExternalStringResourceBase@String@v8@@UAEPAXI@Z 10001f70 f i WebWorkerThreads.obj
 0001:00000f70       ??_EExternalStringResource@String@v8@@UAEPAXI@Z 10001f70 f i WebWorkerThreads.obj
 0001:00000fe0       ??0Allocator@ArrayBuffer@v8@@QAE@XZ 10001fe0 f i WebWorkerThreads.obj
 0001:00000ff0       ??0Allocator@ArrayBuffer@v8@@QAE@ABV012@@Z 10001ff0 f i WebWorkerThreads.obj
 0001:00001000       ??_EAllocator@ArrayBuffer@v8@@UAEPAXI@Z 10002000 f i WebWorkerThreads.obj
 0001:00001070       ??4Contents@ArrayBuffer@v8@@QAEAAV012@ABV012@@Z 10002070 f i WebWorkerThreads.obj
 0001:00001070       ??4Contents@SharedArrayBuffer@v8@@QAEAAV012@$$QAV012@@Z 10002070 f i WebWorkerThreads.obj
 0001:00001070       ??4StartupData@v8@@QAEAAV01@$$QAV01@@Z 10002070 f i WebWorkerThreads.obj
 0001:00001070       ??4StartupData@v8@@QAEAAV01@ABV01@@Z 10002070 f i WebWorkerThreads.obj
 0001:00001070       ??4Contents@SharedArrayBuffer@v8@@QAEAAV012@ABV012@@Z 10002070 f i WebWorkerThreads.obj
 0001:00001070       ??4Contents@ArrayBuffer@v8@@QAEAAV012@$$QAV012@@Z 10002070 f i WebWorkerThreads.obj
 0001:00001090       ??_EExternalOneByteStringResourceImpl@v8@@UAEPAXI@Z 10002090 f i WebWorkerThreads.obj
 0001:00001100       ??_EExtension@v8@@UAEPAXI@Z 10002100 f i WebWorkerThreads.obj
 0001:00001180       ??4ResourceConstraints@v8@@QAEAAV01@ABV01@@Z 10002180 f i WebWorkerThreads.obj
 0001:00001180       ??4HeapStatistics@v8@@QAEAAV01@ABV01@@Z 10002180 f i WebWorkerThreads.obj
 0001:000011a0       ??4HeapStatistics@v8@@QAEAAV01@$$QAV01@@Z 100021a0 f i WebWorkerThreads.obj
 0001:000011a0       ??4ResourceConstraints@v8@@QAEAAV01@$$QAV01@@Z 100021a0 f i WebWorkerThreads.obj
 0001:000011d0       ??4HeapSpaceStatistics@v8@@QAEAAV01@ABV01@@Z 100021d0 f i WebWorkerThreads.obj
 0001:000011f0       ??4HeapSpaceStatistics@v8@@QAEAAV01@$$QAV01@@Z 100021f0 f i WebWorkerThreads.obj
 0001:00001220       ??4HeapObjectStatistics@v8@@QAEAAV01@ABV01@@Z 10002220 f i WebWorkerThreads.obj
 0001:00001230       ??4HeapObjectStatistics@v8@@QAEAAV01@$$QAV01@@Z 10002230 f i WebWorkerThreads.obj
 0001:00001250       ??0ExternalResourceVisitor@v8@@QAE@XZ 10002250 f i WebWorkerThreads.obj
 0001:00001260       ??0ExternalResourceVisitor@v8@@QAE@ABV01@@Z 10002260 f i WebWorkerThreads.obj
 0001:00001270       ??_EExternalResourceVisitor@v8@@UAEPAXI@Z 10002270 f i WebWorkerThreads.obj
 0001:000012e0       ??0PersistentHandleVisitor@v8@@QAE@XZ 100022e0 f i WebWorkerThreads.obj
 0001:000012f0       ??0PersistentHandleVisitor@v8@@QAE@ABV01@@Z 100022f0 f i WebWorkerThreads.obj
 0001:00001300       ??_EPersistentHandleVisitor@v8@@UAEPAXI@Z 10002300 f i WebWorkerThreads.obj
 0001:00001370       ??4Unlocker@v8@@QAEAAV01@ABV01@@Z 10002370 f i WebWorkerThreads.obj
 0001:00001380       ?Ref@ObjectWrap@node@@MAEXXZ 10002380 f i WebWorkerThreads.obj
 0001:000013b0       ?Unref@ObjectWrap@node@@MAEXXZ 100023b0 f i WebWorkerThreads.obj
 0001:00001440       ?WeakCallback@ObjectWrap@node@@CAXABV?$WeakCallbackData@VObject@v8@@VObjectWrap@node@@@v8@@@Z 10002440 f i WebWorkerThreads.obj
 0001:00001510       ??_EObjectWrap@node@@UAEPAXI@Z 10002510 f i * CIL library *:* CIL module *
 0001:00001510       ??_GObjectWrap@node@@UAEPAXI@Z 10002510 f i WebWorkerThreads.obj
 0001:00001630       ?New@?$Factory@VFunctionTemplate@v8@@@imp@Nan@@SA?AV?$Local@VFunctionTemplate@v8@@@v8@@P6AXABV?$FunctionCallbackInfo@VValue@v8@@@3@@ZV?$Local@VValue@v8@@@5@V?$Local@VSignature@v8@@@5@@Z 10002630 f i WebWorkerThreads.obj
 0001:000018c0       ??_EBSON@@UAEPAXI@Z        100028c0 f i * CIL library *:* CIL module *
 0001:000018c0       ??_GBSON@@UAEPAXI@Z        100028c0 f i WebWorkerThreads.obj
 0001:00001940       ?WriteInt32@DataStream@@QAEXABV?$Local@VObject@v8@@@v8@@ABV?$Local@VString@v8@@@3@@Z 10002940 f i WebWorkerThreads.obj
 0001:00001980       ?WriteLengthPrefixedString@DataStream@@QAEXABV?$Local@VString@v8@@@v8@@@Z 10002980 f i WebWorkerThreads.obj
 0001:000019c0       ?WriteObjectId@DataStream@@QAEXABV?$Local@VObject@v8@@@v8@@ABV?$Local@VString@v8@@@3@@Z 100029c0 f   WebWorkerThreads.obj
 0001:00001aa0       ?ThrowAllocatedStringException@@YAXIPBDZZ 10002aa0 f   WebWorkerThreads.obj
 0001:00001ae0       ?CheckKey@DataStream@@QAEXABV?$Local@VString@v8@@@v8@@@Z 10002ae0 f   WebWorkerThreads.obj
 0001:00001b90       ?ReadCString@BSONDeserializer@@QAE?AV?$Local@VValue@v8@@@v8@@XZ 10002b90 f   WebWorkerThreads.obj
 0001:00001c00       ?ReadRegexOptions@BSONDeserializer@@QAEHXZ 10002c00 f   WebWorkerThreads.obj
 0001:00001cc0       ?ReadString@BSONDeserializer@@QAE?AV?$Local@VString@v8@@@v8@@XZ 10002cc0 f   WebWorkerThreads.obj
 0001:00001d20       ?ReadObjectId@BSONDeserializer@@QAE?AV?$Local@VString@v8@@@v8@@XZ 10002d20 f   WebWorkerThreads.obj
 0001:00001de0       ?DeserializeDocument@BSONDeserializer@@QAE?AV?$Local@VValue@v8@@@v8@@_N@Z 10002de0 f   WebWorkerThreads.obj
 0001:00001e60       ?DeserializeDocumentInternal@BSONDeserializer@@AAE?AV?$Local@VValue@v8@@@v8@@_N@Z 10002e60 f   WebWorkerThreads.obj
 0001:000020a0       ?DeserializeArray@BSONDeserializer@@AAE?AV?$Local@VValue@v8@@@v8@@_N@Z 100030a0 f   WebWorkerThreads.obj
 0001:00002120       ?DeserializeArrayInternal@BSONDeserializer@@AAE?AV?$Local@VValue@v8@@@v8@@_N@Z 10003120 f   WebWorkerThreads.obj
 0001:000021f0       ?DeserializeValue@BSONDeserializer@@AAE?AV?$Local@VValue@v8@@@v8@@W4BsonType@@_N@Z 100031f0 f   WebWorkerThreads.obj
 0001:00002850       ??0BSON@@QAE@XZ            10003850 f   WebWorkerThreads.obj
 0001:00003410       ?GetSerializeObject@BSON@@QAE?AV?$Local@VObject@v8@@@v8@@ABV?$Local@VValue@v8@@@3@@Z 10004410 f   WebWorkerThreads.obj
 0001:000036f0       ?readFileSync_@@YAXABV?$FunctionCallbackInfo@VValue@v8@@@Nan@@@Z 100046f0 f   WebWorkerThreads.obj
 0001:00003cc0       ?console_log@@YAXABV?$FunctionCallbackInfo@VValue@v8@@@Nan@@@Z 10004cc0 f   WebWorkerThreads.obj
 0001:00003d90       ?console_error@@YAXABV?$FunctionCallbackInfo@VValue@v8@@@Nan@@@Z 10004d90 f   WebWorkerThreads.obj
 0001:00003e60       ?Allocate@ArrayBufferAllocator@@UAEPAXI@Z 10004e60 f i WebWorkerThreads.obj
 0001:00003e90       ?AllocateUninitialized@ArrayBufferAllocator@@UAEPAXI@Z 10004e90 f i WebWorkerThreads.obj
 0001:00003ea0       ?Free@ArrayBufferAllocator@@UAEXPAXI@Z 10004ea0 f i WebWorkerThreads.obj
 0001:00003fc0       ?Puts@@YAXABV?$FunctionCallbackInfo@VValue@v8@@@Nan@@@Z 10004fc0 f   WebWorkerThreads.obj
 0001:00004080       ?Print@@YAXABV?$FunctionCallbackInfo@VValue@v8@@@Nan@@@Z 10005080 f   WebWorkerThreads.obj
 0001:00004220       ??_GArrayBufferAllocator@@UAEPAXI@Z 10005220 f i WebWorkerThreads.obj
 0001:00004220       ??_EArrayBufferAllocator@@UAEPAXI@Z 10005220 f i * CIL library *:* CIL module *
 0001:00005bb0       ?Destroy@@YAXABV?$FunctionCallbackInfo@VValue@v8@@@Nan@@@Z 10006bb0 f   WebWorkerThreads.obj
 0001:00005d00       ?Eval@@YAXABV?$FunctionCallbackInfo@VValue@v8@@@Nan@@@Z 10006d00 f   WebWorkerThreads.obj
 0001:00006070       ?Load@@YAXABV?$FunctionCallbackInfo@VValue@v8@@@Nan@@@Z 10007070 f   WebWorkerThreads.obj
 0001:00006340       ?processEmit@@YAXABV?$FunctionCallbackInfo@VValue@v8@@@Nan@@@Z 10007340 f   WebWorkerThreads.obj
 0001:00006590       ?processEmitSerialized@@YAXABV?$FunctionCallbackInfo@VValue@v8@@@Nan@@@Z 10007590 f   WebWorkerThreads.obj
 0001:00006830       ?postMessage@@YAXABV?$FunctionCallbackInfo@VValue@v8@@@Nan@@@Z 10007830 f   WebWorkerThreads.obj
 0001:00006ad0       ?postError@@YAXABV?$FunctionCallbackInfo@VValue@v8@@@Nan@@@Z 10007ad0 f   WebWorkerThreads.obj
 0001:00006d70       ?threadEmit@@YAXABV?$FunctionCallbackInfo@VValue@v8@@@Nan@@@Z 10007d70 f   WebWorkerThreads.obj
 0001:00006f70       ?Create@@YAXABV?$FunctionCallbackInfo@VValue@v8@@@Nan@@@Z 10007f70 f   WebWorkerThreads.obj
 0001:00007390       ?Init@@YAXV?$Local@VObject@v8@@@v8@@V?$Local@VValue@v8@@@2@PAX@Z 10008390 f   WebWorkerThreads.obj
 0001:00007880       ??$New@VInt32@v8@@H@Nan@@YA?AV?$Local@VInt32@v8@@@v8@@H@Z 10008880 f i WebWorkerThreads.obj
 0001:000078e0       ??$New@VUint32@v8@@I@Nan@@YA?AV?$Local@VUint32@v8@@@v8@@I@Z 100088e0 f i WebWorkerThreads.obj
 0001:00007940       ??$New@VFunction@v8@@V?$NonCopyablePersistentTraits@VFunction@v8@@@2@@Nan@@YA?AV?$Local@VFunction@v8@@@v8@@ABV?$Persistent@VFunction@v8@@V?$NonCopyablePersistentTraits@VFunction@v8@@@2@@0@@Z 10008940 f i WebWorkerThreads.obj
 0001:00007940       ??$New@VString@v8@@V?$NonCopyablePersistentTraits@VString@v8@@@2@@Nan@@YA?AV?$Local@VString@v8@@@v8@@ABV?$Persistent@VString@v8@@V?$NonCopyablePersistentTraits@VString@v8@@@2@@0@@Z 10008940 f i WebWorkerThreads.obj
 0001:00007970       ??$New@VInteger@v8@@H@Nan@@YA?AV?$Local@VInteger@v8@@@v8@@H@Z 10008970 f i WebWorkerThreads.obj
 0001:000079d0       ?SerializeDocument@?$BSONSerializer@VCountStream@@@@QAEXABV?$Local@VValue@v8@@@v8@@@Z 100089d0 f i WebWorkerThreads.obj
 0001:00007ac0       ?SerializeDocument@?$BSONSerializer@VDataStream@@@@QAEXABV?$Local@VValue@v8@@@v8@@@Z 10008ac0 f i WebWorkerThreads.obj
 0001:00007bf0       ?SerializeValue@?$BSONSerializer@VCountStream@@@@QAEXPAXABV?$Local@VValue@v8@@@v8@@@Z 10008bf0 f i WebWorkerThreads.obj
 0001:00008290       ?SerializeValue@?$BSONSerializer@VDataStream@@@@QAEXPAXABV?$Local@VValue@v8@@@v8@@@Z 10009290 f i WebWorkerThreads.obj
 0001:00008bb0       ?SerializeArray@?$BSONSerializer@VCountStream@@@@QAEXABV?$Local@VValue@v8@@@v8@@@Z 10009bb0 f i WebWorkerThreads.obj
 0001:00008c60       ?SerializeArray@?$BSONSerializer@VDataStream@@@@QAEXABV?$Local@VValue@v8@@@v8@@@Z 10009c60 f i WebWorkerThreads.obj
 0001:00008d6b       __imp_load__uv_cond_signal 10009d6b f   node:node.exe
 0001:00008d75       __tailMerge_node_exe       10009d75 f i node:node.exe
 0001:00008d86       __imp_load__uv_unref       10009d86 f   node:node.exe
 0001:00008d90       __imp_load__uv_mutex_unlock 10009d90 f   node:node.exe
 0001:00008d9a       __imp_load_?Enter@Context@v8@@QAEXXZ 10009d9a f   node:node.exe
 0001:00008da4       __imp_load_?New@Context@v8@@SA?AV?$Local@VContext@v8@@@2@PAVIsolate@2@PAVExtensionConfiguration@2@V?$Local@VObjectTemplate@v8@@@2@V?$Local@VValue@v8@@@2@@Z 10009da4 f   node:node.exe
 0001:00008dae       __imp_load_?Global@Context@v8@@QAE?AV?$Local@VObject@v8@@@2@XZ 10009dae f   node:node.exe
 0001:00008db8       __imp_load_?Value@External@v8@@QBEPAXXZ 10009db8 f   node:node.exe
 0001:00008dc2       __imp_load_?New@External@v8@@SA?AV?$Local@VExternal@v8@@@2@PAVIsolate@2@PAX@Z 10009dc2 f   node:node.exe
 0001:00008dcc       __imp_load_?NewFromUnsigned@Integer@v8@@SA?AV?$Local@VInteger@v8@@@2@PAVIsolate@2@I@Z 10009dcc f   node:node.exe
 0001:00008dd6       __imp_load_?New@Integer@v8@@SA?AV?$Local@VInteger@v8@@@2@PAVIsolate@2@H@Z 10009dd6 f   node:node.exe
 0001:00008de0       __imp_load_?CollectAllGarbage@Isolate@v8@@AAEXPBD@Z 10009de0 f   node:node.exe
 0001:00008dea       __imp_load_?VisitHandlesForPartialDependence@Isolate@v8@@QAEXPAVPersistentHandleVisitor@2@@Z 10009dea f   node:node.exe
 0001:00008df4       __imp_load_?VisitHandlesWithClassIds@Isolate@v8@@QAEXPAVPersistentHandleVisitor@2@@Z 10009df4 f   node:node.exe
 0001:00008dfe       __imp_load_?VisitExternalResources@Isolate@v8@@QAEXPAVExternalResourceVisitor@2@@Z 10009dfe f   node:node.exe
 0001:00008e08       __imp_load_?RemoveMemoryAllocationCallback@Isolate@v8@@QAEXP6AXW4ObjectSpace@2@W4AllocationAction@2@H@Z@Z 10009e08 f   node:node.exe
 0001:00008e12       __imp_load_?AddMemoryAllocationCallback@Isolate@v8@@QAEXP6AXW4ObjectSpace@2@W4AllocationAction@2@H@Z01@Z 10009e12 f   node:node.exe
 0001:00008e1c       __imp_load_?SetCaptureStackTraceForUncaughtExceptions@Isolate@v8@@QAEX_NHW4StackTraceOptions@StackTrace@2@@Z 10009e1c f   node:node.exe
 0001:00008e26       __imp_load_?SetFailedAccessCheckCallbackFunction@Isolate@v8@@QAEXP6AXV?$Local@VObject@v8@@@2@W4AccessType@2@V?$Local@VValue@v8@@@2@@Z@Z 10009e26 f   node:node.exe
 0001:00008e30       __imp_load_?RemoveMessageListeners@Isolate@v8@@QAEXP6AXV?$Local@VMessage@v8@@@2@V?$Local@VValue@v8@@@2@@Z@Z 10009e30 f   node:node.exe
 0001:00008e3a       __imp_load_?AddMessageListener@Isolate@v8@@QAE_NP6AXV?$Local@VMessage@v8@@@2@V?$Local@VValue@v8@@@2@@Z1@Z 10009e3a f   node:node.exe
 0001:00008e44       __imp_load_?IsDead@Isolate@v8@@QAE_NXZ 10009e44 f   node:node.exe
 0001:00008e4e       __imp_load_?SetAllowCodeGenerationFromStringsCallback@Isolate@v8@@QAEXP6A_NV?$Local@VContext@v8@@@2@@Z@Z 10009e4e f   node:node.exe
 0001:00008e58       __imp_load_?SetFatalErrorHandler@Isolate@v8@@QAEXP6AXPBD0@Z@Z 10009e58 f   node:node.exe
 0001:00008e62       __imp_load_?IdleNotificationDeadline@Isolate@v8@@QAE_NN@Z 10009e62 f   node:node.exe
 0001:00008e6c       __imp_load_?CancelTerminateExecution@Isolate@v8@@QAEXXZ 10009e6c f   node:node.exe
 0001:00008e76       __imp_load_?IsExecutionTerminating@Isolate@v8@@QAE_NXZ 10009e76 f   node:node.exe
 0001:00008e80       __imp_load_?TerminateExecution@Isolate@v8@@QAEXXZ 10009e80 f   node:node.exe
 0001:00008e8a       __imp_load_?RemoveGCEpilogueCallback@Isolate@v8@@QAEXP6AXPAV12@W4GCType@2@W4GCCallbackFlags@2@@Z@Z 10009e8a f   node:node.exe
 0001:00008e94       __imp_load_?RemoveGCPrologueCallback@Isolate@v8@@QAEXP6AXPAV12@W4GCType@2@W4GCCallbackFlags@2@@Z@Z 10009e94 f   node:node.exe
 0001:00008e9e       __imp_load_?ThrowException@Isolate@v8@@QAE?AV?$Local@VValue@v8@@@2@V32@@Z 10009e9e f   node:node.exe
 0001:00008ea8       __imp_load_?GetCurrentContext@Isolate@v8@@QAE?AV?$Local@VContext@v8@@@2@XZ 10009ea8 f   node:node.exe
 0001:00008eb2       __imp_load_?Dispose@Isolate@v8@@QAEXXZ 10009eb2 f   node:node.exe
 0001:00008ebc       __imp_load_?Exit@Isolate@v8@@QAEXXZ 10009ebc f   node:node.exe
 0001:00008ec6       __imp_load_?Enter@Isolate@v8@@QAEXXZ 10009ec6 f   node:node.exe
 0001:00008ed0       __imp_load_?GetCurrent@Isolate@v8@@SAPAV12@XZ 10009ed0 f   node:node.exe
 0001:00008eda       __imp_load_?New@Isolate@v8@@SAPAV12@ABUCreateParams@12@@Z 10009eda f   node:node.exe
 0001:00008ee4       __imp_load_?ResetToBookmark@ExternalSourceStream@ScriptCompiler@v8@@UAEXXZ 10009ee4 f   node:node.exe
 0001:00008eee       ?ResetToBookmark@ExternalSourceStream@ScriptCompiler@v8@@UAEXXZ 10009eee f   node:node.exe
 0001:00008ef4       __imp_load_?SetBookmark@ExternalSourceStream@ScriptCompiler@v8@@UAE_NXZ 10009ef4 f   node:node.exe
 0001:00008efe       ?SetBookmark@ExternalSourceStream@ScriptCompiler@v8@@UAE_NXZ 10009efe f   node:node.exe
 0001:00008f04       __imp_load_??1CachedData@ScriptCompiler@v8@@QAE@XZ 10009f04 f   node:node.exe
 0001:00008f0e       __imp_load_?Compile@ScriptCompiler@v8@@SA?AV?$MaybeLocal@VScript@v8@@@2@V?$Local@VContext@v8@@@2@PAVSource@12@W4CompileOptions@12@@Z 10009f0e f   node:node.exe
 0001:00008f18       __imp_load_?GetFlags@RegExp@v8@@QBE?AW4Flags@12@XZ 10009f18 f   node:node.exe
 0001:00008f22       __imp_load_?GetSource@RegExp@v8@@QBE?AV?$Local@VString@v8@@@2@XZ 10009f22 f   node:node.exe
 0001:00008f2c       __imp_load_?New@RegExp@v8@@SA?AV?$Local@VRegExp@v8@@@2@V?$Local@VString@v8@@@2@W4Flags@12@@Z 10009f2c f   node:node.exe
 0001:00008f36       __imp_load_?CreateHandle@HandleScope@v8@@KAPAPAVObject@internal@2@PAVIsolate@42@PAV342@@Z 10009f36 f   node:node.exe
 0001:00008f40       __imp_load_?CreateHandle@HandleScope@v8@@CAPAPAVObject@internal@2@PAVHeapObject@42@PAV342@@Z 10009f40 f   node:node.exe
 0001:00008f4a       __imp_load_??1HandleScope@v8@@QAE@XZ 10009f4a f   node:node.exe
 0001:00008f54       __imp_load_??0HandleScope@v8@@QAE@PAVIsolate@1@@Z 10009f54 f   node:node.exe
 0001:00008f5e       __imp_load_?Set@Template@v8@@QAEXV?$Local@VName@v8@@@2@V?$Local@VData@v8@@@2@W4PropertyAttribute@2@@Z 10009f5e f   node:node.exe
 0001:00008f68       __imp_load_?Error@Exception@v8@@SA?AV?$Local@VValue@v8@@@2@V?$Local@VString@v8@@@2@@Z 10009f68 f   node:node.exe
 0001:00008f72       __imp_load_?TypeError@Exception@v8@@SA?AV?$Local@VValue@v8@@@2@V?$Local@VString@v8@@@2@@Z 10009f72 f   node:node.exe
 0001:00008f7c       __imp_load_?Initialize@Locker@v8@@AAEXPAVIsolate@2@@Z 10009f7c f   node:node.exe
 0001:00008f86       __imp_load_?IsActive@Locker@v8@@SA_NXZ 10009f86 f   node:node.exe
 0001:00008f90       __imp_load_??1Locker@v8@@QAE@XZ 10009f90 f   node:node.exe
 0001:00008f9a       __imp_load_?New@Array@v8@@SA?AV?$Local@VArray@v8@@@2@PAVIsolate@2@H@Z 10009f9a f   node:node.exe
 0001:00008fa4       __imp_load_?Length@Array@v8@@QBEIXZ 10009fa4 f   node:node.exe
 0001:00008fae       __imp_load_?GetId@UnboundScript@v8@@QAEHXZ 10009fae f   node:node.exe
 0001:00008fb8       __imp_load_?Initialize@Unlocker@v8@@AAEXPAVIsolate@2@@Z 10009fb8 f   node:node.exe
 0001:00008fc2       __imp_load_?New@Date@v8@@SA?AV?$MaybeLocal@VValue@v8@@@2@V?$Local@VContext@v8@@@2@N@Z 10009fc2 f   node:node.exe
 0001:00008fcc       __imp_load_?InstanceTemplate@FunctionTemplate@v8@@QAE?AV?$Local@VObjectTemplate@v8@@@2@XZ 10009fcc f   node:node.exe
 0001:00008fd6       __imp_load_?GetFunction@FunctionTemplate@v8@@QAE?AV?$Local@VFunction@v8@@@2@XZ 10009fd6 f   node:node.exe
 0001:00008fe0       __imp_load_?New@FunctionTemplate@v8@@SA?AV?$Local@VFunctionTemplate@v8@@@2@PAVIsolate@2@P6AXABV?$FunctionCallbackInfo@VValue@v8@@@2@@ZV?$Local@VValue@v8@@@2@V?$Local@VSignature@v8@@@2@H@Z 10009fe0 f   node:node.exe
 0001:00008fea       __imp_load_?ToLocalEmpty@V8@v8@@CAXXZ 10009fea f   node:node.exe
 0001:00008ff4       __imp_load_?ClearWeak@V8@v8@@CAPAXPAPAVObject@internal@2@@Z 10009ff4 f   node:node.exe
 0001:00008fff       __imp_load_?MakeWeak@V8@v8@@CAXPAPAVObject@internal@2@PAXP6AXABV?$WeakCallbackData@VValue@v8@@X@2@@Z@Z 10009fff f   node:node.exe
 0001:00009009       __imp_load_?DisposeGlobal@V8@v8@@CAXPAPAVObject@internal@2@@Z 1000a009 f   node:node.exe
 0001:00009013       __imp_load_?GlobalizeReference@V8@v8@@CAPAPAVObject@internal@2@PAVIsolate@42@PAPAV342@@Z 1000a013 f   node:node.exe
 0001:0000901d       __imp_load_?StrictEquals@Value@v8@@QBE_NV?$Local@VValue@v8@@@2@@Z 1000a01d f   node:node.exe
 0001:00009027       __imp_load_?Int32Value@Value@v8@@QBEHXZ 1000a027 f   node:node.exe
 0001:00009031       __imp_load_?Uint32Value@Value@v8@@QBEIXZ 1000a031 f   node:node.exe
 0001:0000903b       __imp_load_?IntegerValue@Value@v8@@QBE_JXZ 1000a03b f   node:node.exe
 0001:00009045       __imp_load_?NumberValue@Value@v8@@QBENXZ 1000a045 f   node:node.exe
 0001:0000904f       __imp_load_?BooleanValue@Value@v8@@QBE_NXZ 1000a04f f   node:node.exe
 0001:00009059       __imp_load_?ToInt32@Value@v8@@QBE?AV?$MaybeLocal@VInt32@v8@@@2@V?$Local@VContext@v8@@@2@@Z 1000a059 f   node:node.exe
 0001:00009063       __imp_load_?ToUint32@Value@v8@@QBE?AV?$MaybeLocal@VUint32@v8@@@2@V?$Local@VContext@v8@@@2@@Z 1000a063 f   node:node.exe
 0001:0000906d       __imp_load_?ToInteger@Value@v8@@QBE?AV?$MaybeLocal@VInteger@v8@@@2@V?$Local@VContext@v8@@@2@@Z 1000a06d f   node:node.exe
 0001:00009077       __imp_load_?ToObject@Value@v8@@QBE?AV?$MaybeLocal@VObject@v8@@@2@V?$Local@VContext@v8@@@2@@Z 1000a077 f   node:node.exe
 0001:00009081       __imp_load_?ToDetailString@Value@v8@@QBE?AV?$MaybeLocal@VString@v8@@@2@V?$Local@VContext@v8@@@2@@Z 1000a081 f   node:node.exe
 0001:0000908b       __imp_load_?ToString@Value@v8@@QBE?AV?$MaybeLocal@VString@v8@@@2@V?$Local@VContext@v8@@@2@@Z 1000a08b f   node:node.exe
 0001:00009095       __imp_load_?ToNumber@Value@v8@@QBE?AV?$MaybeLocal@VNumber@v8@@@2@V?$Local@VContext@v8@@@2@@Z 1000a095 f   node:node.exe
 0001:0000909f       __imp_load_?ToBoolean@Value@v8@@QBE?AV?$MaybeLocal@VBoolean@v8@@@2@V?$Local@VContext@v8@@@2@@Z 1000a09f f   node:node.exe
 0001:000090a9       __imp_load_?IsRegExp@Value@v8@@QBE_NXZ 1000a0a9 f   node:node.exe
 0001:000090b3       __imp_load_?IsDate@Value@v8@@QBE_NXZ 1000a0b3 f   node:node.exe
 0001:000090bd       __imp_load_?IsNumber@Value@v8@@QBE_NXZ 1000a0bd f   node:node.exe
 0001:000090c7       __imp_load_?IsBoolean@Value@v8@@QBE_NXZ 1000a0c7 f   node:node.exe
 0001:000090d1       __imp_load_?IsObject@Value@v8@@QBE_NXZ 1000a0d1 f   node:node.exe
 0001:000090db       __imp_load_?IsArray@Value@v8@@QBE_NXZ 1000a0db f   node:node.exe
 0001:000090e5       __imp_load_?IsFunction@Value@v8@@QBE_NXZ 1000a0e5 f   node:node.exe
 0001:000090ef       __imp_load_?GetEndColumn@Message@v8@@QBEHXZ 1000a0ef f   node:node.exe
 0001:000090f9       __imp_load_?GetStartColumn@Message@v8@@QBEHXZ 1000a0f9 f   node:node.exe
 0001:00009103       __imp_load_?GetLineNumber@Message@v8@@QBEHXZ 1000a103 f   node:node.exe
 0001:0000910d       __imp_load_?GetScriptResourceName@Message@v8@@QBE?AV?$Local@VValue@v8@@@2@XZ 1000a10d f   node:node.exe
 0001:00009117       __imp_load_?GetSourceLine@Message@v8@@QBE?AV?$Local@VString@v8@@@2@XZ 1000a117 f   node:node.exe
 0001:00009121       __imp_load_?Reset@TryCatch@v8@@QAEXXZ 1000a121 f   node:node.exe
 0001:0000912b       __imp_load_?Message@TryCatch@v8@@QBE?AV?$Local@VMessage@v8@@@2@XZ 1000a12b f   node:node.exe
 0001:00009135       __imp_load_?StackTrace@TryCatch@v8@@QBE?AV?$Local@VValue@v8@@@2@XZ 1000a135 f   node:node.exe
 0001:0000913f       __imp_load_?Exception@TryCatch@v8@@QBE?AV?$Local@VValue@v8@@@2@XZ 1000a13f f   node:node.exe
 0001:00009149       __imp_load_?HasCaught@TryCatch@v8@@QBE_NXZ 1000a149 f   node:node.exe
 0001:00009153       __imp_load_??1TryCatch@v8@@QAE@XZ 1000a153 f   node:node.exe
 0001:0000915d       __imp_load_??0TryCatch@v8@@QAE@XZ 1000a15d f   node:node.exe
 0001:00009167       __imp_load_?Escape@EscapableHandleScope@v8@@AAEPAPAVObject@internal@2@PAPAV342@@Z 1000a167 f   node:node.exe
 0001:00009171       __imp_load_??0EscapableHandleScope@v8@@QAE@PAVIsolate@1@@Z 1000a171 f   node:node.exe
 0001:0000917b       __imp_load_?GetUnboundScript@Script@v8@@QAE?AV?$Local@VUnboundScript@v8@@@2@XZ 1000a17b f   node:node.exe
 0001:00009185       __imp_load_?Run@Script@v8@@QAE?AV?$Local@VValue@v8@@@2@XZ 1000a185 f   node:node.exe
 0001:0000918f       __imp_load_?Run@Script@v8@@QAE?AV?$MaybeLocal@VValue@v8@@@2@V?$Local@VContext@v8@@@2@@Z 1000a18f f   node:node.exe
 0001:00009199       __imp_load_?Compile@Script@v8@@SA?AV?$Local@VScript@v8@@@2@V?$Local@VString@v8@@@2@PAVScriptOrigin@2@@Z 1000a199 f   node:node.exe
 0001:000091a3       __imp_load_??1Utf8Value@String@v8@@QAE@XZ 1000a1a3 f   node:node.exe
 0001:000091ad       __imp_load_??0Utf8Value@String@v8@@QAE@V?$Local@VValue@v8@@@2@@Z 1000a1ad f   node:node.exe
 0001:000091b7       __imp_load_?NewFromTwoByte@String@v8@@SA?AV?$MaybeLocal@VString@v8@@@2@PAVIsolate@2@PBGW4NewStringType@2@H@Z 1000a1b7 f   node:node.exe
 0001:000091c1       __imp_load_?NewFromUtf8@String@v8@@SA?AV?$MaybeLocal@VString@v8@@@2@PAVIsolate@2@PBDW4NewStringType@2@H@Z 1000a1c1 f   node:node.exe
 0001:000091cb       __imp_load_?WriteUtf8@String@v8@@QBEHPADHPAHH@Z 1000a1cb f   node:node.exe
 0001:000091d5       __imp_load_?Write@String@v8@@QBEHPAGHHH@Z 1000a1d5 f   node:node.exe
 0001:000091df       __imp_load_?Utf8Length@String@v8@@QBEHXZ 1000a1df f   node:node.exe
 0001:000091e9       __imp_load_??0ResourceConstraints@v8@@QAE@XZ 1000a1e9 f   node:node.exe
 0001:000091f3       __imp_load_?New@Number@v8@@SA?AV?$Local@VNumber@v8@@@2@PAVIsolate@2@N@Z 1000a1f3 f   node:node.exe
 0001:000091fd       __imp_load_?SlowGetAlignedPointerFromInternalField@Object@v8@@AAEPAXH@Z 1000a1fd f   node:node.exe
 0001:00009207       __imp_load_?SlowGetInternalField@Object@v8@@AAE?AV?$Local@VValue@v8@@@2@H@Z 1000a207 f   node:node.exe
 0001:00009211       __imp_load_?New@Object@v8@@SA?AV?$Local@VObject@v8@@@2@PAVIsolate@2@@Z 1000a211 f   node:node.exe
 0001:0000921b       __imp_load_?CallAsFunction@Object@v8@@QAE?AV?$Local@VValue@v8@@@2@V32@HQAV32@@Z 1000a21b f   node:node.exe
 0001:00009225       __imp_load_?SetAlignedPointerInInternalField@Object@v8@@QAEXHPAX@Z 1000a225 f   node:node.exe
 0001:0000922f       __imp_load_?SetInternalField@Object@v8@@QAEXHV?$Local@VValue@v8@@@2@@Z 1000a22f f   node:node.exe
 0001:00009239       __imp_load_?InternalFieldCount@Object@v8@@QAEHXZ 1000a239 f   node:node.exe
 0001:00009243       __imp_load_?GetConstructorName@Object@v8@@QAE?AV?$Local@VString@v8@@@2@XZ 1000a243 f   node:node.exe
 0001:0000924d       __imp_load_?GetOwnPropertyNames@Object@v8@@QAE?AV?$Local@VArray@v8@@@2@XZ 1000a24d f   node:node.exe
 0001:00009257       __imp_load_?GetPropertyNames@Object@v8@@QAE?AV?$Local@VArray@v8@@@2@XZ 1000a257 f   node:node.exe
 0001:00009261       __imp_load_?Has@Object@v8@@QAE_NV?$Local@VValue@v8@@@2@@Z 1000a261 f   node:node.exe
 0001:0000926b       __imp_load_?Get@Object@v8@@QAE?AV?$Local@VValue@v8@@@2@V32@@Z 1000a26b f   node:node.exe
 0001:00009275       __imp_load_?Get@Object@v8@@QAE?AV?$Local@VValue@v8@@@2@I@Z 1000a275 f   node:node.exe
 0001:0000927f       __imp_load_?ForceSet@Object@v8@@QAE_NV?$Local@VValue@v8@@@2@0W4PropertyAttribute@2@@Z 1000a27f f   node:node.exe
 0001:00009289       __imp_load_?Set@Object@v8@@QAE_NV?$Local@VValue@v8@@@2@0@Z 1000a289 f   node:node.exe
 0001:00009293       __imp_load_?Set@Object@v8@@QAE_NIV?$Local@VValue@v8@@@2@@Z 1000a293 f   node:node.exe
 0001:0000929d       __imp_load_?Call@Function@v8@@QAE?AV?$Local@VValue@v8@@@2@V32@HQAV32@@Z 1000a29d f   node:node.exe
 0001:000092a7       __imp_load_?NewInstance@Function@v8@@QBE?AV?$Local@VObject@v8@@@2@HQAV?$Local@VValue@v8@@@2@@Z 1000a2a7 f   node:node.exe
 0001:000092b1       __imp_load_?NewInstance@Function@v8@@QBE?AV?$MaybeLocal@VObject@v8@@@2@V?$Local@VContext@v8@@@2@HQAV?$Local@VValue@v8@@@2@@Z 1000a2b1 f   node:node.exe
 0001:000092bb       __imp_load_?NewInstance@Function@v8@@QBE?AV?$Local@VObject@v8@@@2@XZ 1000a2bb f   node:node.exe
 0001:000092c5       __imp_load_?SetInternalFieldCount@ObjectTemplate@v8@@QAEXH@Z 1000a2c5 f   node:node.exe
 0001:000092cf       __imp_load_?SetHandler@ObjectTemplate@v8@@QAEXABUIndexedPropertyHandlerConfiguration@2@@Z 1000a2cf f   node:node.exe
 0001:000092d9       __imp_load_?NewInstance@ObjectTemplate@v8@@QAE?AV?$Local@VObject@v8@@@2@XZ 1000a2d9 f   node:node.exe
 0001:000092e3       __imp_load_?NewInstance@ObjectTemplate@v8@@QAE?AV?$MaybeLocal@VObject@v8@@@2@V?$Local@VContext@v8@@@2@@Z 1000a2e3 f   node:node.exe
 0001:000092ed       __imp_load_?New@ObjectTemplate@v8@@SA?AV?$Local@VObjectTemplate@v8@@@2@PAVIsolate@2@V?$Local@VFunctionTemplate@v8@@@2@@Z 1000a2ed f   node:node.exe
 0001:000092f7       __imp_load_?New@ObjectTemplate@v8@@SA?AV?$Local@VObjectTemplate@v8@@@2@XZ 1000a2f7 f   node:node.exe
 0001:00009301       __imp_load__uv_cond_init   1000a301 f   node:node.exe
 0001:0000930b       __imp_load__uv_mutex_lock  1000a30b f   node:node.exe
 0001:00009315       __imp_load_?FatalException@node@@YAXPAVIsolate@v8@@ABVTryCatch@3@@Z 1000a315 f   node:node.exe
 0001:0000931f       __imp_load__node_module_register 1000a31f f   node:node.exe
 0001:00009329       __imp_load_?HasInstance@Buffer@node@@YA_NV?$Local@VValue@v8@@@v8@@@Z 1000a329 f   node:node.exe
 0001:00009333       __imp_load_?New@Buffer@node@@YA?AV?$MaybeLocal@VObject@v8@@@v8@@PAVIsolate@4@PADI@Z 1000a333 f   node:node.exe
 0001:0000933d       __imp_load_?Data@Buffer@node@@YAPADV?$Local@VObject@v8@@@v8@@@Z 1000a33d f   node:node.exe
 0001:00009347       __imp_load_?Length@Buffer@node@@YAIV?$Local@VObject@v8@@@v8@@@Z 1000a347 f   node:node.exe
 0001:00009351       __imp_load__uv_thread_create 1000a351 f   node:node.exe
 0001:0000935b       __imp_load__uv_cond_wait   1000a35b f   node:node.exe
 0001:00009365       __imp_load__uv_ref         1000a365 f   node:node.exe
 0001:0000936f       __imp_load__uv_mutex_init  1000a36f f   node:node.exe
 0001:00009379       __imp_load__uv_async_send  1000a379 f   node:node.exe
 0001:00009383       __imp_load__uv_async_init  1000a383 f   node:node.exe
 0001:0000938d       __imp_load__uv_default_loop 1000a38d f   node:node.exe
 0001:00009397       @__security_check_cookie@4 1000a397 f   LIBCMT:_secchk_.obj
 0001:000093a8       ??_V@YAXPAX@Z              1000a3a8 f   LIBCMT:delete_array.obj
 0001:000093ad       ??_V@YAXPAXI@Z             1000a3ad f   LIBCMT:delete_array_size.obj
 0001:000093bb       ??2@YAPAXI@Z               1000a3bb f   LIBCMT:new_scalar.obj
 0001:00009432       ___scrt_acquire_startup_lock 1000a432 f   LIBCMT:utility.obj
 0001:00009467       ___scrt_dllmain_after_initialize_c 1000a467 f   LIBCMT:utility.obj
 0001:0000947f       ___scrt_dllmain_before_initialize_c 1000a47f f   LIBCMT:utility.obj
 0001:0000948d       ___scrt_dllmain_crt_thread_attach 1000a48d f   LIBCMT:utility.obj
 0001:000094ac       ___scrt_dllmain_crt_thread_detach 1000a4ac f   LIBCMT:utility.obj
 0001:000094b9       ___scrt_dllmain_exception_filter 1000a4b9 f   LIBCMT:utility.obj
 0001:000094ec       ___scrt_dllmain_uninitialize_c 1000a4ec f   LIBCMT:utility.obj
 0001:0000950f       ___scrt_dllmain_uninitialize_critical 1000a50f f   LIBCMT:utility.obj
 0001:0000951c       ___scrt_initialize_crt     1000a51c f   LIBCMT:utility.obj
 0001:00009555       ___scrt_initialize_onexit_tables 1000a555 f   LIBCMT:utility.obj
 0001:000095ec       ___scrt_is_nonwritable_in_current_image 1000a5ec f   LIBCMT:utility.obj
 0001:00009679       ___scrt_release_startup_lock 1000a679 f   LIBCMT:utility.obj
 0001:00009696       ___scrt_uninitialize_crt   1000a696 f   LIBCMT:utility.obj
 0001:000096be       __onexit                   1000a6be f   LIBCMT:utility.obj
 0001:000096f9       _atexit                    1000a6f9 f   LIBCMT:utility.obj
 0001:0000970e       ??3@YAXPAX@Z               1000a70e f   LIBCMT:delete_scalar.obj
 0001:00009713       ??3@YAXPAXI@Z              1000a713 f   LIBCMT:delete_scalar_size.obj
 0001:00009721       ??_Etype_info@@UAEPAXI@Z   1000a721 f i LIBCMT:std_type_info_static.obj
 0001:00009721       ??_Gtype_info@@UAEPAXI@Z   1000a721 f i LIBCMT:std_type_info_static.obj
 0001:00009a59       __DllMainCRTStartup@12     1000aa59 f   LIBCMT:dll_dllmain.obj
 0001:00009a7c       ___raise_securityfailure   1000aa7c f   LIBCMT:gs_report.obj
 0001:00009aa4       ___report_gsfailure        1000aaa4 f   LIBCMT:gs_report.obj
 0001:00009b9f       ??0bad_alloc@std@@QAE@ABV01@@Z 1000ab9f f i LIBCMT:throw_bad_alloc.obj
 0001:00009bc0       ??0bad_alloc@std@@QAE@XZ   1000abc0 f i LIBCMT:throw_bad_alloc.obj
 0001:00009bd8       ??0bad_array_new_length@std@@QAE@ABV01@@Z 1000abd8 f i LIBCMT:throw_bad_alloc.obj
 0001:00009bf9       ??0bad_array_new_length@std@@QAE@XZ 1000abf9 f i LIBCMT:throw_bad_alloc.obj
 0001:00009c11       ??0exception@std@@QAE@ABV01@@Z 1000ac11 f i LIBCMT:throw_bad_alloc.obj
 0001:00009c3d       ??1bad_alloc@std@@UAE@XZ   1000ac3d f i LIBCMT:throw_bad_alloc.obj
 0001:00009c3d       ??1bad_array_new_length@std@@UAE@XZ 1000ac3d f i LIBCMT:throw_bad_alloc.obj
 0001:00009c4e       ??_Ebad_array_new_length@std@@UAEPAXI@Z 1000ac4e f i LIBCMT:throw_bad_alloc.obj
 0001:00009c4e       ??_Gbad_alloc@std@@UAEPAXI@Z 1000ac4e f i LIBCMT:throw_bad_alloc.obj
 0001:00009c4e       ??_Eexception@std@@UAEPAXI@Z 1000ac4e f i LIBCMT:throw_bad_alloc.obj
 0001:00009c4e       ??_Gexception@std@@UAEPAXI@Z 1000ac4e f i LIBCMT:throw_bad_alloc.obj
 0001:00009c4e       ??_Ebad_alloc@std@@UAEPAXI@Z 1000ac4e f i LIBCMT:throw_bad_alloc.obj
 0001:00009c4e       ??_Gbad_array_new_length@std@@UAEPAXI@Z 1000ac4e f i LIBCMT:throw_bad_alloc.obj
 0001:00009c7b       ?__scrt_throw_std_bad_alloc@@YAXXZ 1000ac7b f   LIBCMT:throw_bad_alloc.obj
 0001:00009c98       ?__scrt_throw_std_bad_array_new_length@@YAXXZ 1000ac98 f   LIBCMT:throw_bad_alloc.obj
 0001:00009cb5       ?what@exception@std@@UBEPBDXZ 1000acb5 f i LIBCMT:throw_bad_alloc.obj
 0001:00009cc2       ___isa_available_init      1000acc2 f   LIBCMT:_cpu_disp_.obj
 0001:00009e63       ___scrt_is_ucrt_dll_in_use 1000ae63 f   LIBCMT:ucrt_detection.obj
 0001:00009e6f       ___scrt_fastfail           1000ae6f f   LIBCMT:utility_desktop.obj
 0001:00009f8a       __crt_debugger_hook        1000af8a f   LIBCMT:utility_desktop.obj
 0001:00009f92       @_guard_check_icall@4      1000af92 f i LIBCMT:checkcfg.obj
 0001:00009fa0       __SEH_prolog4              1000afa0 f   LIBCMT:_sehprolg4_.obj
 0001:00009fe6       __SEH_epilog4              1000afe6 f   LIBCMT:_sehprolg4_.obj
 0001:00009ffb       ___security_init_cookie    1000affb f   LIBCMT:gs_support.obj
 0001:0000a097       _DllMain@12                1000b097 f   LIBCMT:dll_dllmain_stub.obj
 0001:0000a09d       ?__scrt_initialize_type_info@@YAXXZ 1000b09d f   LIBCMT:tncleanup.obj
 0001:0000a0a9       ?__scrt_uninitialize_type_info@@YAXXZ 1000b0a9 f   LIBCMT:tncleanup.obj
 0001:0000a0b5       ___local_stdio_scanf_options 1000b0b5 f i LIBCMT:default_local_stdio_options.obj
 0001:0000a0bb       ___scrt_initialize_default_local_stdio_options 1000b0bb f   LIBCMT:default_local_stdio_options.obj
 0001:0000a0d8       ___scrt_get_dyn_tls_init_callback 1000b0d8 f   LIBCMT:dyn_tls_init.obj
 0001:0000a0de       __RTC_Initialize           1000b0de f   LIBCMT:_initsect_.obj
 0001:0000a109       __RTC_Terminate            1000b109 f   LIBCMT:_initsect_.obj
 0001:0000a134       ___except_validate_context_record 1000b134 f i libvcruntime:jbcxrval.obj
 0001:0000a134       @_guard_check_icall_nop@4  1000b134 f i LIBCMT:guard_support.obj
 0001:0000a134       ___except_validate_jump_buffer 1000b134 f i libvcruntime:jbcxrval.obj
 0001:0000a135       __get_purecall_handler     1000b135 f   libvcruntime:purevirt.obj
 0001:0000a154       __purecall                 1000b154 f   libvcruntime:purevirt.obj
 0001:0000a170       _strchr                    1000b170 f   libvcruntime:strchr.obj
 0001:0000a1de       ___from_strstr_to_strchr   1000b1de     libvcruntime:strchr.obj
 0001:0000a29b       ___vcrt_initialize         1000b29b f   libvcruntime:initialization.obj
 0001:0000a2c9       ___vcrt_thread_attach      1000b2c9 f   libvcruntime:initialization.obj
 0001:0000a2d4       ___vcrt_thread_detach      1000b2d4 f   libvcruntime:initialization.obj
 0001:0000a2df       ___vcrt_uninitialize       1000b2df f   libvcruntime:initialization.obj
 0001:0000a303       ___vcrt_uninitialize_critical 1000b303 f   libvcruntime:initialization.obj
 0001:0000a350       __except_handler4          1000b350 f   libvcruntime:_chandler4_.obj
 0001:0000a4e4       ___telemetry_main_invoke_trigger 1000b4e4 f   libvcruntime:telemetry.obj
 0001:0000a580       ___telemetry_main_return_trigger 1000b580 f   libvcruntime:telemetry.obj
 0001:0000a61c       ___vcrt_initialize_telemetry_provider 1000b61c f   libvcruntime:telemetry.obj
 0001:0000a62f       ___vcrt_uninitialize_telemetry_provider 1000b62f f   libvcruntime:telemetry.obj
 0001:0000a63b       ___std_exception_copy      1000b63b f   libvcruntime:std_exception.obj
 0001:0000a69e       ___std_exception_destroy   1000b69e f   libvcruntime:std_exception.obj
 0001:0000a6bd       __CxxThrowException@8      1000b6bd f   libvcruntime:throw.obj
 0001:0000a730       _memset                    1000b730 f   libvcruntime:memset.obj
 0001:0000a88a       ___std_type_info_destroy_list 1000b88a f   libvcruntime:std_type_info.obj
 0001:0000a8ad       ___vcrt_initialize_pure_virtual_call_handler 1000b8ad f   libvcruntime:purevirt_data.obj
 0001:0000a8ca       ___vcrt_freefls@4          1000b8ca f   libvcruntime:per_thread_data.obj
 0001:0000a8e6       ___vcrt_freeptd            1000b8e6 f   libvcruntime:per_thread_data.obj
 0001:0000a91c       ___vcrt_getptd_noexit      1000b91c f   libvcruntime:per_thread_data.obj
 0001:0000a994       ___vcrt_initialize_ptd     1000b994 f   libvcruntime:per_thread_data.obj
 0001:0000a9c7       ___vcrt_uninitialize_ptd   1000b9c7 f   libvcruntime:per_thread_data.obj
 0001:0000a9e2       ___vcrt_initialize_locks   1000b9e2 f   libvcruntime:locks.obj
 0001:0000aa1e       ___vcrt_uninitialize_locks 1000ba1e f   libvcruntime:locks.obj
 0001:0000aa4d       ??$__crt_fast_encode_pointer@PAP6AXXZ@@YAPAP6AXXZQAP6AXXZ@Z 1000ba4d f i LIBCMT:utility.obj
 0001:0000aa4d       ??$__crt_fast_encode_pointer@PAX@@YAPAXQAX@Z 1000ba4d f i libvcruntime:winapi_downlevel.obj
 0001:0000ab8b       ___vcrt_EventRegister      1000bb8b f   libvcruntime:winapi_downlevel.obj
 0001:0000abcb       ___vcrt_EventSetInformation 1000bbcb f   libvcruntime:winapi_downlevel.obj
 0001:0000ac0e       ___vcrt_EventUnregister    1000bc0e f   libvcruntime:winapi_downlevel.obj
 0001:0000ac48       ___vcrt_EventWriteTransfer 1000bc48 f   libvcruntime:winapi_downlevel.obj
 0001:0000ac91       ___vcrt_FlsAlloc           1000bc91 f   libvcruntime:winapi_downlevel.obj
 0001:0000accb       ___vcrt_FlsFree            1000bccb f   libvcruntime:winapi_downlevel.obj
 0001:0000ad05       ___vcrt_FlsGetValue        1000bd05 f   libvcruntime:winapi_downlevel.obj
 0001:0000ad3f       ___vcrt_FlsSetValue        1000bd3f f   libvcruntime:winapi_downlevel.obj
 0001:0000ad7c       ___vcrt_InitializeCriticalSectionEx 1000bd7c f   libvcruntime:winapi_downlevel.obj
 0001:0000adc2       ___vcrt_initialize_winapi_thunks 1000bdc2 f   libvcruntime:winapi_downlevel.obj
 0001:0000ade6       ___vcrt_uninitialize_winapi_thunks 1000bde6 f   libvcruntime:winapi_downlevel.obj
 0001:0000ae20       __local_unwind4            1000be20 f   libvcruntime:_exsup4_.obj
 0001:0000aef6       __seh_longjmp_unwind4@4    1000bef6 f   libvcruntime:_exsup4_.obj
 0001:0000af1e       @_EH4_CallFilterFunc@8     1000bf1e f   libvcruntime:_exsup4_.obj
 0001:0000af35       @_EH4_TransferToHandler@8  1000bf35 f   libvcruntime:_exsup4_.obj
 0001:0000af4e       @_EH4_GlobalUnwind2@8      1000bf4e f   libvcruntime:_exsup4_.obj
 0001:0000af67       @_EH4_LocalUnwind@16       1000bf67 f   libvcruntime:_exsup4_.obj
 0001:0000af90       __global_unwind2           1000bf90 f   libvcruntime:_exsup_.obj
 0001:0000aff5       __local_unwind2            1000bff5 f   libvcruntime:_exsup_.obj
 0001:0000b079       __abnormal_termination     1000c079 f   libvcruntime:_exsup_.obj
 0001:0000b09c       __NLG_Notify1              1000c09c f   libvcruntime:_exsup_.obj
 0001:0000b0a5       __NLG_Notify               1000c0a5 f   libvcruntime:_exsup_.obj
 0001:0000b0bc       __NLG_Dispatch             1000c0bc     libvcruntime:_exsup_.obj
 0001:0000b0bc       __NLG_Dispatch2            1000c0bc     libvcruntime:_exsup_.obj
 0001:0000b0c4       __NLG_Call                 1000c0c4 f   libvcruntime:_exsup_.obj
 0001:0000b0c6       __NLG_Return2              1000c0c6     libvcruntime:_exsup_.obj
 0001:0000b613       __ftelli64_nolock          1000c613 f   libucrt:ftell.obj
 0001:0000b61e       _ftell                     1000c61e f   libucrt:ftell.obj
 0001:0000b629       _calloc                    1000c629 f   libucrt:calloc.obj
 0001:0000b634       _ferror                    1000c634 f   libucrt:feoferr.obj
 0001:0000b720       _fopen                     1000c720 f   libucrt:fopen.obj
 0001:0000b737       ___acrt_initialize_stdio   1000c737 f   libucrt:_file.obj
 0001:0000b7ff       ___acrt_iob_func           1000c7ff f   libucrt:_file.obj
 0001:0000b80f       ___acrt_uninitialize_stdio 1000c80f f   libucrt:_file.obj
 0001:0000b85b       __lock_file                1000c85b f   libucrt:_file.obj
 0001:0000b86f       __unlock_file              1000c86f f   libucrt:_file.obj
 0001:0000b883       ___acrt_stdio_flush_nolock 1000c883 f   libucrt:fflush.obj
 0001:0000b8e9       __fflush_nolock            1000c8e9 f   libucrt:fflush.obj
 0001:0000b930       __flushall                 1000c930 f   libucrt:fflush.obj
 0001:0000ba11       _fflush                    1000ca11 f   libucrt:fflush.obj
 0001:0000ba6a       __fclose_nolock            1000ca6a f   libucrt:fclose.obj
 0001:0000bae0       _fclose                    1000cae0 f   libucrt:fclose.obj
 0001:0000bb60       ?LongLongSub@@YAJ_J0PA_J@Z 1000cb60 f i libucrt:fseek.obj
 0001:0000be1a       _fseek                     1000ce1a f   libucrt:fseek.obj
 0001:0000be35       ??$?RV<lambda_ab9923ffb5d694ec0d78876dd103e44f>@@AAV<lambda_481dd5778c961fbcd3b60b650e9b9dc4>@@V<lambda_7923d86c9e3f319b415918ec4b39749c>@@@?$__crt_seh_guarded_call@H@@QAEH$$QAV<lambda_ab9923ffb5d694ec0d78876dd103e44f>@@AAV<lambda_481dd5778c961fbcd3b60b650e9b9dc4>@@$$QAV<lambda_7923d86c9e3f319b415918ec4b39749c>@@@Z 1000ce35 f i libucrt:output.obj
 0001:0000be86       ??$?RV<lambda_db08b09ef7aa9d4f8620ce68402612bc>@@AAV<lambda_4f2c1eaeead2a5fc776db5b62ea0fb9b>@@V<lambda_3ae262bc35d4ba6a3825c4f6bcaaf95c>@@@?$__crt_seh_guarded_call@H@@QAEH$$QAV<lambda_db08b09ef7aa9d4f8620ce68402612bc>@@AAV<lambda_4f2c1eaeead2a5fc776db5b62ea0fb9b>@@$$QAV<lambda_3ae262bc35d4ba6a3825c4f6bcaaf95c>@@@Z 1000ce86 f i libucrt:output.obj
 0001:0000bed7       ??$__acrt_lock_stream_and_call@V<lambda_481dd5778c961fbcd3b60b650e9b9dc4>@@@@YAHQAU_iobuf@@$$QAV<lambda_481dd5778c961fbcd3b60b650e9b9dc4>@@@Z 1000ced7 f i libucrt:output.obj
 0001:0000beff       ??$__acrt_lock_stream_and_call@V<lambda_4f2c1eaeead2a5fc776db5b62ea0fb9b>@@@@YAHQAU_iobuf@@$$QAV<lambda_4f2c1eaeead2a5fc776db5b62ea0fb9b>@@@Z 1000ceff f i libucrt:output.obj
 0001:0000c228       ??$count@D@formatting_buffer@__crt_stdio_output@@QBEIXZ 1000d228 f i libucrt:output.obj
 0001:0000c240       ??$ensure_buffer_is_big_enough@D@formatting_buffer@__crt_stdio_output@@QAE_NI@Z 1000d240 f i libucrt:output.obj
 0001:0000c2c6       ??$is_wide_character_specifier@D@__crt_stdio_output@@YA_N_KDW4length_modifier@0@@Z 1000d2c6 f i libucrt:output.obj
 0001:0000c306       ??$is_wide_character_specifier@_W@__crt_stdio_output@@YA_N_K_WW4length_modifier@0@@Z 1000d306 f i libucrt:output.obj
 0001:0000c355       ??$scratch_data@D@formatting_buffer@__crt_stdio_output@@QAEPADXZ 1000d355 f i libucrt:output.obj
 0001:0000c373       ??$type_case_integer_parse_into_buffer@I@?$output_processor@DV?$string_output_adapter@D@__crt_stdio_output@@V?$standard_base@DV?$string_output_adapter@D@__crt_stdio_output@@@2@@__crt_stdio_output@@AAEXII_N@Z 1000d373 f i libucrt:output.obj
 0001:0000c373       ??$type_case_integer_parse_into_buffer@I@?$output_processor@DV?$stream_output_adapter@D@__crt_stdio_output@@V?$standard_base@DV?$stream_output_adapter@D@__crt_stdio_output@@@2@@__crt_stdio_output@@AAEXII_N@Z 1000d373 f i libucrt:output.obj
 0001:0000c373       ??$type_case_integer_parse_into_buffer@I@?$output_processor@_WV?$string_output_adapter@_W@__crt_stdio_output@@V?$standard_base@_WV?$string_output_adapter@_W@__crt_stdio_output@@@2@@__crt_stdio_output@@AAEXII_N@Z 1000d373 f i libucrt:output.obj
 0001:0000c373       ??$type_case_integer_parse_into_buffer@I@?$output_processor@_WV?$stream_output_adapter@_W@__crt_stdio_output@@V?$standard_base@_WV?$stream_output_adapter@_W@__crt_stdio_output@@@2@@__crt_stdio_output@@AAEXII_N@Z 1000d373 f i libucrt:output.obj
 0001:0000c3e8       ??$type_case_integer_parse_into_buffer@_K@?$output_processor@_WV?$string_output_adapter@_W@__crt_stdio_output@@V?$standard_base@_WV?$string_output_adapter@_W@__crt_stdio_output@@@2@@__crt_stdio_output@@AAEX_KI_N@Z 1000d3e8 f i libucrt:output.obj
 0001:0000c3e8       ??$type_case_integer_parse_into_buffer@_K@?$output_processor@DV?$stream_output_adapter@D@__crt_stdio_output@@V?$standard_base@DV?$stream_output_adapter@D@__crt_stdio_output@@@2@@__crt_stdio_output@@AAEX_KI_N@Z 1000d3e8 f i libucrt:output.obj
 0001:0000c3e8       ??$type_case_integer_parse_into_buffer@_K@?$output_processor@_WV?$stream_output_adapter@_W@__crt_stdio_output@@V?$standard_base@_WV?$stream_output_adapter@_W@__crt_stdio_output@@@2@@__crt_stdio_output@@AAEX_KI_N@Z 1000d3e8 f i libucrt:output.obj
 0001:0000c3e8       ??$type_case_integer_parse_into_buffer@_K@?$output_processor@DV?$string_output_adapter@D@__crt_stdio_output@@V?$standard_base@DV?$string_output_adapter@D@__crt_stdio_output@@@2@@__crt_stdio_output@@AAEX_KI_N@Z 1000d3e8 f i libucrt:output.obj
 0001:0000c470       ??$write_multiple_characters@V?$stream_output_adapter@D@__crt_stdio_output@@D@__crt_stdio_output@@YAXABV?$stream_output_adapter@D@0@DHQAH@Z 1000d470 f i libucrt:output.obj
 0001:0000c49c       ??$write_multiple_characters@V?$stream_output_adapter@_W@__crt_stdio_output@@D@__crt_stdio_output@@YAXABV?$stream_output_adapter@_W@0@DHQAH@Z 1000d49c f i libucrt:output.obj
 0001:0000c4cd       ??$write_multiple_characters@V?$string_output_adapter@D@__crt_stdio_output@@D@__crt_stdio_output@@YAXABV?$string_output_adapter@D@0@DHQAH@Z 1000d4cd f i libucrt:output.obj
 0001:0000c4f9       ??$write_multiple_characters@V?$string_output_adapter@_W@__crt_stdio_output@@D@__crt_stdio_output@@YAXABV?$string_output_adapter@_W@0@DHQAH@Z 1000d4f9 f i libucrt:output.obj
 0001:0000c52a       ??0?$common_data@D@__crt_stdio_output@@IAE@XZ 1000d52a f i libucrt:output.obj
 0001:0000c571       ??0?$common_data@_W@__crt_stdio_output@@IAE@XZ 1000d571 f i libucrt:output.obj
 0001:0000c5bd       ??0?$output_adapter_data@DV?$string_output_adapter@D@__crt_stdio_output@@@__crt_stdio_output@@IAE@ABV?$string_output_adapter@D@1@_KQBDQAU__crt_locale_pointers@@QAD@Z 1000d5bd f i libucrt:output.obj
 0001:0000c5bd       ??0?$output_adapter_data@DV?$stream_output_adapter@D@__crt_stdio_output@@@__crt_stdio_output@@IAE@ABV?$stream_output_adapter@D@1@_KQBDQAU__crt_locale_pointers@@QAD@Z 1000d5bd f i libucrt:output.obj
 0001:0000c5f9       ??0?$output_adapter_data@_WV?$string_output_adapter@_W@__crt_stdio_output@@@__crt_stdio_output@@IAE@ABV?$string_output_adapter@_W@1@_KQB_WQAU__crt_locale_pointers@@QAD@Z 1000d5f9 f i libucrt:output.obj
 0001:0000c5f9       ??0?$output_adapter_data@_WV?$stream_output_adapter@_W@__crt_stdio_output@@@__crt_stdio_output@@IAE@ABV?$stream_output_adapter@_W@1@_KQB_WQAU__crt_locale_pointers@@QAD@Z 1000d5f9 f i libucrt:output.obj
 0001:0000c635       ??0?$output_processor@DV?$string_output_adapter@D@__crt_stdio_output@@V?$standard_base@DV?$string_output_adapter@D@__crt_stdio_output@@@2@@__crt_stdio_output@@QAE@ABV?$string_output_adapter@D@1@_KQBDQAU__crt_locale_pointers@@QAD@Z 1000d635 f i libucrt:output.obj
 0001:0000c635       ??0?$output_processor@DV?$stream_output_adapter@D@__crt_stdio_output@@V?$standard_base@DV?$stream_output_adapter@D@__crt_stdio_output@@@2@@__crt_stdio_output@@QAE@ABV?$stream_output_adapter@D@1@_KQBDQAU__crt_locale_pointers@@QAD@Z 1000d635 f i libucrt:output.obj
 0001:0000c66a       ??0?$output_processor@_WV?$string_output_adapter@_W@__crt_stdio_output@@V?$standard_base@_WV?$string_output_adapter@_W@__crt_stdio_output@@@2@@__crt_stdio_output@@QAE@ABV?$string_output_adapter@_W@1@_KQB_WQAU__crt_locale_pointers@@QAD@Z 1000d66a f i libucrt:output.obj
 0001:0000c66a       ??0?$output_processor@_WV?$stream_output_adapter@_W@__crt_stdio_output@@V?$standard_base@_WV?$stream_output_adapter@_W@__crt_stdio_output@@@2@@__crt_stdio_output@@QAE@ABV?$stream_output_adapter@_W@1@_KQB_WQAU__crt_locale_pointers@@QAD@Z 1000d66a f i libucrt:output.obj
 0001:0000c69f       ??0_LocaleUpdate@@QAE@QAU__crt_locale_pointers@@@Z 1000d69f f i libucrt:output.obj
 0001:0000c722       ??1formatting_buffer@__crt_stdio_output@@QAE@XZ 1000d722 f i libucrt:output.obj
 0001:0000c73c       ??4?$__crt_unique_heap_ptr@DU__crt_internal_free_policy@@@@QAEAAV0@$$QAV0@@Z 1000d73c f i libucrt:output.obj
 0001:0000c8da       ?crop_zeroes@__crt_stdio_output@@YAXPADQAU__crt_locale_pointers@@@Z 1000d8da f i libucrt:output.obj
 0001:0000c931       ?find_next_state@?$output_processor@DV?$stream_output_adapter@D@__crt_stdio_output@@V?$standard_base@DV?$stream_output_adapter@D@__crt_stdio_output@@@2@@__crt_stdio_output@@ABE?AW4state@2@DW432@@Z 1000d931 f i libucrt:output.obj
 0001:0000c931       ?find_next_state@?$output_processor@DV?$string_output_adapter@D@__crt_stdio_output@@V?$standard_base@DV?$string_output_adapter@D@__crt_stdio_output@@@2@@__crt_stdio_output@@ABE?AW4state@2@DW432@@Z 1000d931 f i libucrt:output.obj
 0001:0000c963       ?find_next_state@?$output_processor@_WV?$stream_output_adapter@_W@__crt_stdio_output@@V?$standard_base@_WV?$stream_output_adapter@_W@__crt_stdio_output@@@2@@__crt_stdio_output@@ABE?AW4state@2@_WW432@@Z 1000d963 f i libucrt:output.obj
 0001:0000c963       ?find_next_state@?$output_processor@_WV?$string_output_adapter@_W@__crt_stdio_output@@V?$standard_base@_WV?$string_output_adapter@_W@__crt_stdio_output@@@2@@__crt_stdio_output@@ABE?AW4state@2@_WW432@@Z 1000d963 f i libucrt:output.obj
 0001:0000c997       ?force_decimal_point@__crt_stdio_output@@YAXPADQAU__crt_locale_pointers@@@Z 1000d997 f i libucrt:output.obj
 0001:0000c9f3       ?parse_int_from_format_string@?$output_processor@DV?$stream_output_adapter@D@__crt_stdio_output@@V?$standard_base@DV?$stream_output_adapter@D@__crt_stdio_output@@@2@@__crt_stdio_output@@AAE_NQAH@Z 1000d9f3 f i libucrt:output.obj
 0001:0000c9f3       ?parse_int_from_format_string@?$output_processor@DV?$string_output_adapter@D@__crt_stdio_output@@V?$standard_base@DV?$string_output_adapter@D@__crt_stdio_output@@@2@@__crt_stdio_output@@AAE_NQAH@Z 1000d9f3 f i libucrt:output.obj
 0001:0000ca4f       ?parse_int_from_format_string@?$output_processor@_WV?$stream_output_adapter@_W@__crt_stdio_output@@V?$standard_base@_WV?$stream_output_adapter@_W@__crt_stdio_output@@@2@@__crt_stdio_output@@AAE_NQAH@Z 1000da4f f i libucrt:output.obj
 0001:0000ca4f       ?parse_int_from_format_string@?$output_processor@_WV?$string_output_adapter@_W@__crt_stdio_output@@V?$standard_base@_WV?$string_output_adapter@_W@__crt_stdio_output@@@2@@__crt_stdio_output@@AAE_NQAH@Z 1000da4f f i libucrt:output.obj
 0001:0000caad       ?process@?$output_processor@DV?$stream_output_adapter@D@__crt_stdio_output@@V?$standard_base@DV?$stream_output_adapter@D@__crt_stdio_output@@@2@@__crt_stdio_output@@QAEHXZ 1000daad f i libucrt:output.obj
 0001:0000cbc9       ?process@?$output_processor@DV?$string_output_adapter@D@__crt_stdio_output@@V?$standard_base@DV?$string_output_adapter@D@__crt_stdio_output@@@2@@__crt_stdio_output@@QAEHXZ 1000dbc9 f i libucrt:output.obj
 0001:0000cce5       ?process@?$output_processor@_WV?$stream_output_adapter@_W@__crt_stdio_output@@V?$standard_base@_WV?$stream_output_adapter@_W@__crt_stdio_output@@@2@@__crt_stdio_output@@QAEHXZ 1000dce5 f i libucrt:output.obj
 0001:0000ce05       ?process@?$output_processor@_WV?$string_output_adapter@_W@__crt_stdio_output@@V?$standard_base@_WV?$string_output_adapter@_W@__crt_stdio_output@@@2@@__crt_stdio_output@@QAEHXZ 1000de05 f i libucrt:output.obj
 0001:0000cf25       ?state_case_flag@?$output_processor@DV?$string_output_adapter@D@__crt_stdio_output@@V?$standard_base@DV?$string_output_adapter@D@__crt_stdio_output@@@2@@__crt_stdio_output@@AAE_NXZ 1000df25 f i libucrt:output.obj
 0001:0000cf25       ?state_case_flag@?$output_processor@DV?$stream_output_adapter@D@__crt_stdio_output@@V?$standard_base@DV?$stream_output_adapter@D@__crt_stdio_output@@@2@@__crt_stdio_output@@AAE_NXZ 1000df25 f i libucrt:output.obj
 0001:0000cf62       ?state_case_flag@?$output_processor@_WV?$stream_output_adapter@_W@__crt_stdio_output@@V?$standard_base@_WV?$stream_output_adapter@_W@__crt_stdio_output@@@2@@__crt_stdio_output@@AAE_NXZ 1000df62 f i libucrt:output.obj
 0001:0000cf62       ?state_case_flag@?$output_processor@_WV?$string_output_adapter@_W@__crt_stdio_output@@V?$standard_base@_WV?$string_output_adapter@_W@__crt_stdio_output@@@2@@__crt_stdio_output@@AAE_NXZ 1000df62 f i libucrt:output.obj
 0001:0000cf9f       ?state_case_normal@?$output_processor@DV?$stream_output_adapter@D@__crt_stdio_output@@V?$standard_base@DV?$stream_output_adapter@D@__crt_stdio_output@@@2@@__crt_stdio_output@@AAE_NXZ 1000df9f f i libucrt:output.obj
 0001:0000cfbe       ?state_case_normal@?$output_processor@DV?$string_output_adapter@D@__crt_stdio_output@@V?$standard_base@DV?$string_output_adapter@D@__crt_stdio_output@@@2@@__crt_stdio_output@@AAE_NXZ 1000dfbe f i libucrt:output.obj
 0001:0000cfdd       ?state_case_normal@?$output_processor@_WV?$stream_output_adapter@_W@__crt_stdio_output@@V?$standard_base@_WV?$stream_output_adapter@_W@__crt_stdio_output@@@2@@__crt_stdio_output@@AAE_NXZ 1000dfdd f i libucrt:output.obj
 0001:0000cffc       ?state_case_normal@?$output_processor@_WV?$string_output_adapter@_W@__crt_stdio_output@@V?$standard_base@_WV?$string_output_adapter@_W@__crt_stdio_output@@@2@@__crt_stdio_output@@AAE_NXZ 1000dffc f i libucrt:output.obj
 0001:0000d01b       ?state_case_normal_common@?$output_processor@DV?$stream_output_adapter@D@__crt_stdio_output@@V?$standard_base@DV?$stream_output_adapter@D@__crt_stdio_output@@@2@@__crt_stdio_output@@AAE_NXZ 1000e01b f i libucrt:output.obj
 0001:0000d045       ?state_case_normal_common@?$output_processor@DV?$string_output_adapter@D@__crt_stdio_output@@V?$standard_base@DV?$string_output_adapter@D@__crt_stdio_output@@@2@@__crt_stdio_output@@AAE_NXZ 1000e045 f i libucrt:output.obj
 0001:0000d06f       ?state_case_normal_common@?$output_processor@_WV?$stream_output_adapter@_W@__crt_stdio_output@@V?$standard_base@_WV?$stream_output_adapter@_W@__crt_stdio_output@@@2@@__crt_stdio_output@@AAE_NXZ 1000e06f f i libucrt:output.obj
 0001:0000d08a       ?state_case_normal_common@?$output_processor@_WV?$string_output_adapter@_W@__crt_stdio_output@@V?$standard_base@_WV?$string_output_adapter@_W@__crt_stdio_output@@@2@@__crt_stdio_output@@AAE_NXZ 1000e08a f i libucrt:output.obj
 0001:0000d0a5       ?state_case_normal_tchar@?$output_processor@DV?$stream_output_adapter@D@__crt_stdio_output@@V?$standard_base@DV?$stream_output_adapter@D@__crt_stdio_output@@@2@@__crt_stdio_output@@AAE_ND@Z 1000e0a5 f i libucrt:output.obj
 0001:0000d106       ?state_case_normal_tchar@?$output_processor@DV?$string_output_adapter@D@__crt_stdio_output@@V?$standard_base@DV?$string_output_adapter@D@__crt_stdio_output@@@2@@__crt_stdio_output@@AAE_ND@Z 1000e106 f i libucrt:output.obj
 0001:0000d167       ?state_case_precision@?$output_processor@DV?$stream_output_adapter@D@__crt_stdio_output@@V?$standard_base@DV?$stream_output_adapter@D@__crt_stdio_output@@@2@@__crt_stdio_output@@AAE_NXZ 1000e167 f i libucrt:output.obj
 0001:0000d167       ?state_case_precision@?$output_processor@DV?$string_output_adapter@D@__crt_stdio_output@@V?$standard_base@DV?$string_output_adapter@D@__crt_stdio_output@@@2@@__crt_stdio_output@@AAE_NXZ 1000e167 f i libucrt:output.obj
 0001:0000d18f       ?state_case_precision@?$output_processor@_WV?$string_output_adapter@_W@__crt_stdio_output@@V?$standard_base@_WV?$string_output_adapter@_W@__crt_stdio_output@@@2@@__crt_stdio_output@@AAE_NXZ 1000e18f f i libucrt:output.obj
 0001:0000d18f       ?state_case_precision@?$output_processor@_WV?$stream_output_adapter@_W@__crt_stdio_output@@V?$standard_base@_WV?$stream_output_adapter@_W@__crt_stdio_output@@@2@@__crt_stdio_output@@AAE_NXZ 1000e18f f i libucrt:output.obj
 0001:0000d1b8       ?state_case_size@?$output_processor@DV?$stream_output_adapter@D@__crt_stdio_output@@V?$standard_base@DV?$stream_output_adapter@D@__crt_stdio_output@@@2@@__crt_stdio_output@@AAE_NXZ 1000e1b8 f i libucrt:output.obj
 0001:0000d321       ?state_case_size@?$output_processor@DV?$string_output_adapter@D@__crt_stdio_output@@V?$standard_base@DV?$string_output_adapter@D@__crt_stdio_output@@@2@@__crt_stdio_output@@AAE_NXZ 1000e321 f i libucrt:output.obj
 0001:0000d48a       ?state_case_size@?$output_processor@_WV?$stream_output_adapter@_W@__crt_stdio_output@@V?$standard_base@_WV?$stream_output_adapter@_W@__crt_stdio_output@@@2@@__crt_stdio_output@@AAE_NXZ 1000e48a f i libucrt:output.obj
 0001:0000d606       ?state_case_size@?$output_processor@_WV?$string_output_adapter@_W@__crt_stdio_output@@V?$standard_base@_WV?$string_output_adapter@_W@__crt_stdio_output@@@2@@__crt_stdio_output@@AAE_NXZ 1000e606 f i libucrt:output.obj
 0001:0000d782       ?state_case_type@?$output_processor@DV?$stream_output_adapter@D@__crt_stdio_output@@V?$standard_base@DV?$stream_output_adapter@D@__crt_stdio_output@@@2@@__crt_stdio_output@@AAE_NXZ 1000e782 f i libucrt:output.obj
 0001:0000d9b1       ?state_case_type@?$output_processor@DV?$string_output_adapter@D@__crt_stdio_output@@V?$standard_base@DV?$string_output_adapter@D@__crt_stdio_output@@@2@@__crt_stdio_output@@AAE_NXZ 1000e9b1 f i libucrt:output.obj
 0001:0000dbe0       ?state_case_type@?$output_processor@_WV?$stream_output_adapter@_W@__crt_stdio_output@@V?$standard_base@_WV?$stream_output_adapter@_W@__crt_stdio_output@@@2@@__crt_stdio_output@@AAE_NXZ 1000ebe0 f i libucrt:output.obj
 0001:0000de3d       ?state_case_type@?$output_processor@_WV?$string_output_adapter@_W@__crt_stdio_output@@V?$standard_base@_WV?$string_output_adapter@_W@__crt_stdio_output@@@2@@__crt_stdio_output@@AAE_NXZ 1000ee3d f i libucrt:output.obj
 0001:0000e09a       ?state_case_width@?$output_processor@DV?$string_output_adapter@D@__crt_stdio_output@@V?$standard_base@DV?$string_output_adapter@D@__crt_stdio_output@@@2@@__crt_stdio_output@@AAE_NXZ 1000f09a f i libucrt:output.obj
 0001:0000e09a       ?state_case_width@?$output_processor@DV?$stream_output_adapter@D@__crt_stdio_output@@V?$standard_base@DV?$stream_output_adapter@D@__crt_stdio_output@@@2@@__crt_stdio_output@@AAE_NXZ 1000f09a f i libucrt:output.obj
 0001:0000e0c5       ?state_case_width@?$output_processor@_WV?$string_output_adapter@_W@__crt_stdio_output@@V?$standard_base@_WV?$string_output_adapter@_W@__crt_stdio_output@@@2@@__crt_stdio_output@@AAE_NXZ 1000f0c5 f i libucrt:output.obj
 0001:0000e0c5       ?state_case_width@?$output_processor@_WV?$stream_output_adapter@_W@__crt_stdio_output@@V?$standard_base@_WV?$stream_output_adapter@_W@__crt_stdio_output@@@2@@__crt_stdio_output@@AAE_NXZ 1000f0c5 f i libucrt:output.obj
 0001:0000e0f1       ?to_integer_size@__crt_stdio_output@@YAIW4length_modifier@1@@Z 1000f0f1 f i libucrt:output.obj
 0001:0000e14d       ?type_case_Z@?$output_processor@DV?$stream_output_adapter@D@__crt_stdio_output@@V?$standard_base@DV?$stream_output_adapter@D@__crt_stdio_output@@@2@@__crt_stdio_output@@AAE_NXZ 1000f14d f i libucrt:output.obj
 0001:0000e14d       ?type_case_Z@?$output_processor@DV?$string_output_adapter@D@__crt_stdio_output@@V?$standard_base@DV?$string_output_adapter@D@__crt_stdio_output@@@2@@__crt_stdio_output@@AAE_NXZ 1000f14d f i libucrt:output.obj
 0001:0000e1b0       ?type_case_Z@?$output_processor@_WV?$string_output_adapter@_W@__crt_stdio_output@@V?$standard_base@_WV?$string_output_adapter@_W@__crt_stdio_output@@@2@@__crt_stdio_output@@AAE_NXZ 1000f1b0 f i libucrt:output.obj
 0001:0000e1b0       ?type_case_Z@?$output_processor@_WV?$stream_output_adapter@_W@__crt_stdio_output@@V?$standard_base@_WV?$stream_output_adapter@_W@__crt_stdio_output@@@2@@__crt_stdio_output@@AAE_NXZ 1000f1b0 f i libucrt:output.obj
 0001:0000e213       ?type_case_a@?$output_processor@DV?$string_output_adapter@D@__crt_stdio_output@@V?$standard_base@DV?$string_output_adapter@D@__crt_stdio_output@@@2@@__crt_stdio_output@@AAE_NXZ 1000f213 f i libucrt:output.obj
 0001:0000e213       ?type_case_a@?$output_processor@DV?$stream_output_adapter@D@__crt_stdio_output@@V?$standard_base@DV?$stream_output_adapter@D@__crt_stdio_output@@@2@@__crt_stdio_output@@AAE_NXZ 1000f213 f i libucrt:output.obj
 0001:0000e36d       ?type_case_a@?$output_processor@_WV?$string_output_adapter@_W@__crt_stdio_output@@V?$standard_base@_WV?$string_output_adapter@_W@__crt_stdio_output@@@2@@__crt_stdio_output@@AAE_NXZ 1000f36d f i libucrt:output.obj
 0001:0000e36d       ?type_case_a@?$output_processor@_WV?$stream_output_adapter@_W@__crt_stdio_output@@V?$standard_base@_WV?$stream_output_adapter@_W@__crt_stdio_output@@@2@@__crt_stdio_output@@AAE_NXZ 1000f36d f i libucrt:output.obj
 0001:0000e4df       ?type_case_c_tchar@?$output_processor@DV?$stream_output_adapter@D@__crt_stdio_output@@V?$standard_base@DV?$stream_output_adapter@D@__crt_stdio_output@@@2@@__crt_stdio_output@@AAE_ND@Z 1000f4df f i libucrt:output.obj
 0001:0000e4df       ?type_case_c_tchar@?$output_processor@DV?$string_output_adapter@D@__crt_stdio_output@@V?$standard_base@DV?$string_output_adapter@D@__crt_stdio_output@@@2@@__crt_stdio_output@@AAE_ND@Z 1000f4df f i libucrt:output.obj
 0001:0000e56f       ?type_case_c_tchar@?$output_processor@_WV?$stream_output_adapter@_W@__crt_stdio_output@@V?$standard_base@_WV?$stream_output_adapter@_W@__crt_stdio_output@@@2@@__crt_stdio_output@@AAE_N_W@Z 1000f56f f i libucrt:output.obj
 0001:0000e56f       ?type_case_c_tchar@?$output_processor@_WV?$string_output_adapter@_W@__crt_stdio_output@@V?$standard_base@_WV?$string_output_adapter@_W@__crt_stdio_output@@@2@@__crt_stdio_output@@AAE_N_W@Z 1000f56f f i libucrt:output.obj
 0001:0000e607       ?type_case_integer@?$output_processor@_WV?$string_output_adapter@_W@__crt_stdio_output@@V?$standard_base@_WV?$string_output_adapter@_W@__crt_stdio_output@@@2@@__crt_stdio_output@@AAE_NI_N@Z 1000f607 f i libucrt:output.obj
 0001:0000e607       ?type_case_integer@?$output_processor@DV?$string_output_adapter@D@__crt_stdio_output@@V?$standard_base@DV?$string_output_adapter@D@__crt_stdio_output@@@2@@__crt_stdio_output@@AAE_NI_N@Z 1000f607 f i libucrt:output.obj
 0001:0000e607       ?type_case_integer@?$output_processor@_WV?$stream_output_adapter@_W@__crt_stdio_output@@V?$standard_base@_WV?$stream_output_adapter@_W@__crt_stdio_output@@@2@@__crt_stdio_output@@AAE_NI_N@Z 1000f607 f i libucrt:output.obj
 0001:0000e607       ?type_case_integer@?$output_processor@DV?$stream_output_adapter@D@__crt_stdio_output@@V?$standard_base@DV?$stream_output_adapter@D@__crt_stdio_output@@@2@@__crt_stdio_output@@AAE_NI_N@Z 1000f607 f i libucrt:output.obj
 0001:0000e751       ?type_case_n@?$output_processor@_WV?$string_output_adapter@_W@__crt_stdio_output@@V?$standard_base@_WV?$string_output_adapter@_W@__crt_stdio_output@@@2@@__crt_stdio_output@@AAE_NXZ 1000f751 f i libucrt:output.obj
 0001:0000e751       ?type_case_n@?$output_processor@_WV?$stream_output_adapter@_W@__crt_stdio_output@@V?$standard_base@_WV?$stream_output_adapter@_W@__crt_stdio_output@@@2@@__crt_stdio_output@@AAE_NXZ 1000f751 f i libucrt:output.obj
 0001:0000e751       ?type_case_n@?$output_processor@DV?$stream_output_adapter@D@__crt_stdio_output@@V?$standard_base@DV?$stream_output_adapter@D@__crt_stdio_output@@@2@@__crt_stdio_output@@AAE_NXZ 1000f751 f i libucrt:output.obj
 0001:0000e751       ?type_case_n@?$output_processor@DV?$string_output_adapter@D@__crt_stdio_output@@V?$standard_base@DV?$string_output_adapter@D@__crt_stdio_output@@@2@@__crt_stdio_output@@AAE_NXZ 1000f751 f i libucrt:output.obj
 0001:0000e7c5       ?type_case_o@?$output_processor@DV?$string_output_adapter@D@__crt_stdio_output@@V?$standard_base@DV?$string_output_adapter@D@__crt_stdio_output@@@2@@__crt_stdio_output@@AAE_NXZ 1000f7c5 f i libucrt:output.obj
 0001:0000e7c5       ?type_case_o@?$output_processor@DV?$stream_output_adapter@D@__crt_stdio_output@@V?$standard_base@DV?$stream_output_adapter@D@__crt_stdio_output@@@2@@__crt_stdio_output@@AAE_NXZ 1000f7c5 f i libucrt:output.obj
 0001:0000e7c5       ?type_case_o@?$output_processor@_WV?$string_output_adapter@_W@__crt_stdio_output@@V?$standard_base@_WV?$string_output_adapter@_W@__crt_stdio_output@@@2@@__crt_stdio_output@@AAE_NXZ 1000f7c5 f i libucrt:output.obj
 0001:0000e7c5       ?type_case_o@?$output_processor@_WV?$stream_output_adapter@_W@__crt_stdio_output@@V?$standard_base@_WV?$stream_output_adapter@_W@__crt_stdio_output@@@2@@__crt_stdio_output@@AAE_NXZ 1000f7c5 f i libucrt:output.obj
 0001:0000e7e4       ?type_case_p@?$output_processor@DV?$stream_output_adapter@D@__crt_stdio_output@@V?$standard_base@DV?$stream_output_adapter@D@__crt_stdio_output@@@2@@__crt_stdio_output@@AAE_NXZ 1000f7e4 f i libucrt:output.obj
 0001:0000e7e4       ?type_case_p@?$output_processor@_WV?$string_output_adapter@_W@__crt_stdio_output@@V?$standard_base@_WV?$string_output_adapter@_W@__crt_stdio_output@@@2@@__crt_stdio_output@@AAE_NXZ 1000f7e4 f i libucrt:output.obj
 0001:0000e7e4       ?type_case_p@?$output_processor@DV?$string_output_adapter@D@__crt_stdio_output@@V?$standard_base@DV?$string_output_adapter@D@__crt_stdio_output@@@2@@__crt_stdio_output@@AAE_NXZ 1000f7e4 f i libucrt:output.obj
 0001:0000e7e4       ?type_case_p@?$output_processor@_WV?$stream_output_adapter@_W@__crt_stdio_output@@V?$standard_base@_WV?$stream_output_adapter@_W@__crt_stdio_output@@@2@@__crt_stdio_output@@AAE_NXZ 1000f7e4 f i libucrt:output.obj
 0001:0000e7fc       ?type_case_s@?$output_processor@DV?$stream_output_adapter@D@__crt_stdio_output@@V?$standard_base@DV?$stream_output_adapter@D@__crt_stdio_output@@@2@@__crt_stdio_output@@AAE_NXZ 1000f7fc f i libucrt:output.obj
 0001:0000e7fc       ?type_case_s@?$output_processor@DV?$string_output_adapter@D@__crt_stdio_output@@V?$standard_base@DV?$string_output_adapter@D@__crt_stdio_output@@@2@@__crt_stdio_output@@AAE_NXZ 1000f7fc f i libucrt:output.obj
 0001:0000e86f       ?type_case_s@?$output_processor@_WV?$string_output_adapter@_W@__crt_stdio_output@@V?$standard_base@_WV?$string_output_adapter@_W@__crt_stdio_output@@@2@@__crt_stdio_output@@AAE_NXZ 1000f86f f i libucrt:output.obj
 0001:0000e86f       ?type_case_s@?$output_processor@_WV?$stream_output_adapter@_W@__crt_stdio_output@@V?$standard_base@_WV?$stream_output_adapter@_W@__crt_stdio_output@@@2@@__crt_stdio_output@@AAE_NXZ 1000f86f f i libucrt:output.obj
 0001:0000e8e3       ?type_case_s_compute_narrow_string_length@?$output_processor@_WV?$string_output_adapter@_W@__crt_stdio_output@@V?$standard_base@_WV?$string_output_adapter@_W@__crt_stdio_output@@@2@@__crt_stdio_output@@ABEHH_W@Z 1000f8e3 f i libucrt:output.obj
 0001:0000e8e3       ?type_case_s_compute_narrow_string_length@?$output_processor@_WV?$stream_output_adapter@_W@__crt_stdio_output@@V?$standard_base@_WV?$stream_output_adapter@_W@__crt_stdio_output@@@2@@__crt_stdio_output@@ABEHH_W@Z 1000f8e3 f i libucrt:output.obj
 0001:0000e923       ?validate@?$stream_output_adapter@D@__crt_stdio_output@@QBE_NXZ 1000f923 f i libucrt:output.obj
 0001:0000e944       ?validate@?$string_output_adapter@D@__crt_stdio_output@@QBE_NXZ 1000f944 f i libucrt:output.obj
 0001:0000e944       ?validate@?$string_output_adapter@_W@__crt_stdio_output@@QBE_NXZ 1000f944 f i libucrt:output.obj
 0001:0000e944       ?validate@?$stream_output_adapter@_W@__crt_stdio_output@@QBE_NXZ 1000f944 f i libucrt:output.obj
 0001:0000e944       ?validate@?$c_string_character_source@D@__crt_strtox@@QBE_NXZ 1000f944 f i libucrt:atox.obj
 0001:0000e944       ?validate@?$c_string_character_source@_W@__crt_strtox@@QBE_NXZ 1000f944 f i libucrt:atox.obj
 0001:0000e95f       ?validate_stream_is_ansi_if_required@?$__acrt_stdio_char_traits@D@@SA_NQAU_iobuf@@@Z 1000f95f f i libucrt:output.obj
 0001:0000e9e1       ?write_character@?$stream_output_adapter@D@__crt_stdio_output@@QBEXDQAH@Z 1000f9e1 f i libucrt:output.obj
 0001:0000ea1e       ?write_character@?$stream_output_adapter@_W@__crt_stdio_output@@QBEX_WQAH@Z 1000fa1e f i libucrt:output.obj
 0001:0000ea5e       ?write_character@?$string_output_adapter@D@__crt_stdio_output@@QBE_NDQAH@Z 1000fa5e f i libucrt:output.obj
 0001:0000eaa0       ?write_character@?$string_output_adapter@_W@__crt_stdio_output@@QBE_N_WQAH@Z 1000faa0 f i libucrt:output.obj
 0001:0000eae5       ?write_stored_string_tchar@?$output_processor@DV?$stream_output_adapter@D@__crt_stdio_output@@V?$standard_base@DV?$stream_output_adapter@D@__crt_stdio_output@@@2@@__crt_stdio_output@@AAE_ND@Z 1000fae5 f i libucrt:output.obj
 0001:0000eb8c       ?write_stored_string_tchar@?$output_processor@DV?$string_output_adapter@D@__crt_stdio_output@@V?$standard_base@DV?$string_output_adapter@D@__crt_stdio_output@@@2@@__crt_stdio_output@@AAE_ND@Z 1000fb8c f i libucrt:output.obj
 0001:0000ec33       ?write_stored_string_tchar@?$output_processor@_WV?$stream_output_adapter@_W@__crt_stdio_output@@V?$standard_base@_WV?$stream_output_adapter@_W@__crt_stdio_output@@@2@@__crt_stdio_output@@AAE_N_W@Z 1000fc33 f i libucrt:output.obj
 0001:0000ecbe       ?write_stored_string_tchar@?$output_processor@_WV?$string_output_adapter@_W@__crt_stdio_output@@V?$standard_base@_WV?$string_output_adapter@_W@__crt_stdio_output@@@2@@__crt_stdio_output@@AAE_N_W@Z 1000fcbe f i libucrt:output.obj
 0001:0000ed49       ?write_string@?$stream_output_adapter@D@__crt_stdio_output@@QBEXQBDHQAH1@Z 1000fd49 f i libucrt:output.obj
 0001:0000edd3       ?write_string@?$stream_output_adapter@_W@__crt_stdio_output@@QBEXQB_WHQAH1@Z 1000fdd3 f i libucrt:output.obj
 0001:0000ee60       ?write_string@?$string_output_adapter@D@__crt_stdio_output@@QBEXQBDHQAH1@Z 1000fe60 f i libucrt:output.obj
 0001:0000eef3       ?write_string@?$string_output_adapter@_W@__crt_stdio_output@@QBEXQB_WHQAH1@Z 1000fef3 f i libucrt:output.obj
 0001:0000ef8d       ___stdio_common_vfprintf   1000ff8d f   libucrt:output.obj
 0001:0000f004       ___stdio_common_vfwprintf  10010004 f   libucrt:output.obj
 0001:0000f07b       ___stdio_common_vsprintf   1001007b f   libucrt:output.obj
 0001:0000f09f       ___stdio_common_vswprintf  1001009f f   libucrt:output.obj
 0001:0000f0c3       _rewind                    100100c3 f   libucrt:rewind.obj
 0001:0000f191       __fputc_nolock             10010191 f   libucrt:fputc.obj
 0001:0000f1ba       __fputchar                 100101ba f   libucrt:fputc.obj
 0001:0000f1d4       _fputc                     100101d4 f   libucrt:fputc.obj
 0001:0000f2d8       _putchar                   100102d8 f   libucrt:fputc.obj
 0001:0000f2e3       ___acrt_errno_from_os_error 100102e3 f   libucrt:errno.obj
 0001:0000f326       ___acrt_errno_map_os_error 10010326 f   libucrt:errno.obj
 0001:0000f349       ___doserrno                10010349 f   libucrt:errno.obj
 0001:0000f35c       __errno                    1001035c f   libucrt:errno.obj
 0001:0000f36f       ??$?RV<lambda_b0cac3301889906f8da68b04e3d9a7f4>@@AAV<lambda_9a20e10065b92b5193c3597a66cba9d4>@@V<lambda_24b35df97fd4c1fecac72a72d95cc146>@@@?$__crt_seh_guarded_call@H@@QAEH$$QAV<lambda_b0cac3301889906f8da68b04e3d9a7f4>@@AAV<lambda_9a20e10065b92b5193c3597a66cba9d4>@@$$QAV<lambda_24b35df97fd4c1fecac72a72d95cc146>@@@Z 1001036f f i libucrt:fputs.obj
 0001:0000f3c0       ??$__acrt_lock_stream_and_call@V<lambda_9a20e10065b92b5193c3597a66cba9d4>@@@@YAHQAU_iobuf@@$$QAV<lambda_9a20e10065b92b5193c3597a66cba9d4>@@@Z 100103c0 f i libucrt:fputs.obj
 0001:0000f436       _fputs                     10010436 f   libucrt:fputs.obj
 0001:0000f511       _free                      10010511 f   libucrt:free.obj
 0001:0000f516       __fread_nolock_s           10010516 f   libucrt:fread.obj
 0001:0000f6e2       _fread                     100106e2 f   libucrt:fread.obj
 0001:0000f6ff       _fread_s                   100106ff f   libucrt:fread.obj
 0001:0000fdf6       ??$ftprintf@PAU_iobuf@@PB_WABQB_WABQB_WABI@?$__crt_char_traits@_W@@SAH$$QAPAU_iobuf@@$$QAPB_WABQB_W2ABI@Z 10010df6 f i libucrt:assert.obj
 0001:0000fed5       __vfwprintf_l              10010ed5 f i libucrt:assert.obj
 0001:0000fefa       __vswprintf_c_l            10010efa f i libucrt:assert.obj
 0001:0000ff29       __wassert                  10010f29 f   libucrt:assert.obj
 0001:0000ff71       _fwprintf                  10010f71 f i libucrt:assert.obj
 0001:0000ff8c       _swprintf                  10010f8c f i libucrt:assert.obj
 0001:00010026       __get_sys_err_msg          10011026 f i libucrt:strerror.obj
 0001:0001004a       _strerror                  1001104a f   libucrt:strerror.obj
 0001:00010055       _malloc                    10011055 f   libucrt:malloc.obj
 0001:00010060       ___ascii_stricmp           10011060 f   libucrt:stricmp.obj
 0001:0001009b       __stricmp                  1001109b f   libucrt:stricmp.obj
 0001:000100e3       __stricmp_l                100110e3 f   libucrt:stricmp.obj
 0001:0001017d       ___acrt_initialize_new_handler 1001117d f   libucrt:new_handler.obj
 0001:00010191       __callnewh                 10011191 f   libucrt:new_handler.obj
 0001:000101d5       __query_new_handler        100111d5 f   libucrt:new_handler.obj
 0001:00010227       __seh_filter_dll           10011227 f   libucrt:exception_filter.obj
 0001:00010247       __seh_filter_exe           10011247 f   libucrt:exception_filter.obj
 0001:000105d5       ___acrt_initialize_thread_local_exit_callback 100115d5 f   libucrt:exit.obj
 0001:000105e4       __cexit                    100115e4 f   libucrt:exit.obj
 0001:000105f3       __exit                     100115f3 f   libucrt:exit.obj
 0001:00010609       __is_c_termination_complete 10011609 f   libucrt:exit.obj
 0001:00010768       ??$uninitialize@A6AXAAPAPA_W@Z@?$dual_state_global@PAPA_W@__crt_state_management@@QAEXA6AXAAPAPA_W@Z@Z 10011768 f i libucrt:environment_initialization.obj
 0001:00010768       ??$uninitialize@A6AXAAPAPAD@Z@?$dual_state_global@PAPAD@__crt_state_management@@QAEXA6AXAAPAPAD@Z@Z 10011768 f i libucrt:environment_initialization.obj
 0001:000107de       ___dcrt_uninitialize_environments_nolock 100117de f   libucrt:environment_initialization.obj
 0001:00010815       __initialize_narrow_environment 10011815 f   libucrt:environment_initialization.obj
 0001:0001081a       ??$?RV<lambda_800076c951b434888f4765a74a194fcc>@@AAV<lambda_4e60a939b0d047cfe11ddc22648dfba9>@@V<lambda_6dbb1268764f43b569ce7b67e331d33a>@@@?$__crt_seh_guarded_call@H@@QAEH$$QAV<lambda_800076c951b434888f4765a74a194fcc>@@AAV<lambda_4e60a939b0d047cfe11ddc22648dfba9>@@$$QAV<lambda_6dbb1268764f43b569ce7b67e331d33a>@@@Z 1001181a f i libucrt:onexit.obj
 0001:0001086b       ??$?RV<lambda_995298e7d72eb4c2aab26c0585b3abe5>@@AAV<lambda_275893d493268fdec8709772e3fcec0e>@@V<lambda_293819299cbf9a7022e18b56a874bb5c>@@@?$__crt_seh_guarded_call@H@@QAEH$$QAV<lambda_995298e7d72eb4c2aab26c0585b3abe5>@@AAV<lambda_275893d493268fdec8709772e3fcec0e>@@$$QAV<lambda_293819299cbf9a7022e18b56a874bb5c>@@@Z 1001186b f i libucrt:onexit.obj
 0001:000108bc       ??$__acrt_lock_and_call@V<lambda_275893d493268fdec8709772e3fcec0e>@@@@YAHW4__acrt_lock_id@@$$QAV<lambda_275893d493268fdec8709772e3fcec0e>@@@Z 100118bc f i libucrt:onexit.obj
 0001:000108e4       ??$__acrt_lock_and_call@V<lambda_4e60a939b0d047cfe11ddc22648dfba9>@@@@YAHW4__acrt_lock_id@@$$QAV<lambda_4e60a939b0d047cfe11ddc22648dfba9>@@@Z 100118e4 f i libucrt:onexit.obj
 0001:0001090c       ??$__crt_fast_encode_pointer@P6AHXZ@@YAP6AHXZQ6AHXZ@Z 1001190c f i libucrt:onexit.obj
 0001:00010b8c       __crt_atexit               10011b8c f   libucrt:onexit.obj
 0001:00010ba2       __execute_onexit_table     10011ba2 f   libucrt:onexit.obj
 0001:00010bbf       __initialize_onexit_table  10011bbf f   libucrt:onexit.obj
 0001:00010bfc       __register_onexit_function 10011bfc f   libucrt:onexit.obj
 0001:00010d11       ___acrt_initialize         10011d11 f   libucrt:initialization.obj
 0001:00010d23       ___acrt_thread_attach      10011d23 f   libucrt:initialization.obj
 0001:00010d2e       ___acrt_thread_detach      10011d2e f   libucrt:initialization.obj
 0001:00010d36       ___acrt_uninitialize       10011d36 f   libucrt:initialization.obj
 0001:00010d48       ___acrt_uninitialize_critical 10011d48 f   libucrt:initialization.obj
 0001:00010d5a       __initterm                 10011d5a f   libucrt:initterm.obj
 0001:00010db6       __initterm_e               10011db6 f   libucrt:initterm.obj
 0001:00010dfb       _terminate                 10011dfb f   libucrt:terminate.obj
 0001:00010e37       _abort                     10011e37 f   libucrt:abort.obj
 0001:00010e7a       _strcpy_s                  10011e7a f   libucrt:strcpy_s.obj
 0001:00010ed4       __free_base                10011ed4 f   libucrt:free_base.obj
 0001:00010f0e       __malloc_base              10011f0e f   libucrt:malloc_base.obj
 0001:00010f5c       __calloc_base              10011f5c f   libucrt:calloc_base.obj
 0001:00010fb9       ??$is_overflow_condition@K@__crt_strtox@@YA_NIK@Z 10011fb9 f i libucrt:atox.obj
 0001:00010fec       ??$parse_integer@KV?$c_string_character_source@D@__crt_strtox@@@__crt_strtox@@YAKQAU__crt_locale_pointers@@V?$c_string_character_source@D@0@H_N@Z 10011fec f i libucrt:atox.obj
 0001:00011214       ??$parse_integer@KV?$c_string_character_source@_W@__crt_strtox@@@__crt_strtox@@YAKQAU__crt_locale_pointers@@V?$c_string_character_source@_W@0@H_N@Z 10012214 f i libucrt:atox.obj
 0001:000118f9       ?unget@?$c_string_character_source@D@__crt_strtox@@QAEXD@Z 100128f9 f i libucrt:atox.obj
 0001:00011921       ?unget@?$c_string_character_source@_W@__crt_strtox@@QAEX_W@Z 10012921 f i libucrt:atox.obj
 0001:0001194d       __chvalidchk_l             1001294d f i libucrt:atox.obj
 0001:00011977       __ischartype_l             10012977 f i libucrt:atox.obj
 0001:000119aa       ___acrt_call_reportfault   100129aa f   libucrt:invalid_parameter.obj
 0001:00011ae5       ___acrt_initialize_invalid_parameter_handler 10012ae5 f   libucrt:invalid_parameter.obj
 0001:00011af9       __invalid_parameter        10012af9 f   libucrt:invalid_parameter.obj
 0001:00011b74       __invalid_parameter_noinfo 10012b74 f   libucrt:invalid_parameter.obj
 0001:00011b84       __invoke_watson            10012b84 f   libucrt:invalid_parameter.obj
 0001:00011f00       __lseek                    10012f00 f   libucrt:lseek.obj
 0001:00011f0b       __lseeki64                 10012f0b f   libucrt:lseek.obj
 0001:00011f26       __lseeki64_nolock          10012f26 f   libucrt:lseek.obj
 0001:00011f41       __fileno                   10012f41 f   libucrt:fileno.obj
 0001:0001244f       __read                     1001344f f   libucrt:read.obj
 0001:00012562       __read_nolock              10013562 f   libucrt:read.obj
 0001:00012a83       ___acrt_initialize_lowio   10013a83 f   libucrt:ioinit.obj
 0001:00012ad9       ___acrt_uninitialize_lowio 10013ad9 f   libucrt:ioinit.obj
 0001:00012b05       ?__acrt_stdio_allocate_stream@@YA?AV__crt_stdio_stream@@XZ 10013b05 f   libucrt:stream.obj
 0001:00012b64       ?__acrt_stdio_free_stream@@YAXV__crt_stdio_stream@@@Z 10013b64 f   libucrt:stream.obj
 0001:00012c62       ??$__acrt_stdio_parse_mode@D@@YA?AU__acrt_stdio_stream_mode@@QBD@Z 10013c62 f i libucrt:openfile.obj
 0001:00012f19       ?__acrt_stdio_parse_mode_D@@YA_NAAU__acrt_stdio_stream_mode@@@Z 10013f19 f i libucrt:openfile.obj
 0001:00012f34       ?__acrt_stdio_parse_mode_T@@YA_NAAU__acrt_stdio_stream_mode@@@Z 10013f34 f i libucrt:openfile.obj
 0001:00012f53       ?__acrt_stdio_parse_mode_b@@YA_NAAU__acrt_stdio_stream_mode@@@Z 10013f53 f i libucrt:openfile.obj
 0001:00012f73       ?__acrt_stdio_parse_mode_c@@YA_NAAU__acrt_stdio_stream_mode@@AA_N@Z 10013f73 f i libucrt:openfile.obj
 0001:00012f95       ?__acrt_stdio_parse_mode_n@@YA_NAAU__acrt_stdio_stream_mode@@AA_N@Z 10013f95 f i libucrt:openfile.obj
 0001:00012fb7       ?__acrt_stdio_parse_mode_plus@@YA_NAAU__acrt_stdio_stream_mode@@AA_N@Z 10013fb7 f i libucrt:openfile.obj
 0001:00012fec       ?__acrt_stdio_parse_mode_t@@YA_NAAU__acrt_stdio_stream_mode@@@Z 10013fec f i libucrt:openfile.obj
 0001:0001300c       __openfile                 1001400c f   libucrt:openfile.obj
 0001:00013162       ___acrt_AreFileApisANSI@0  10014162 f   libucrt:winapi_thunks.obj
 0001:000131b0       ___acrt_FlsAlloc@4         100141b0 f   libucrt:winapi_thunks.obj
 0001:00013206       ___acrt_FlsFree@4          10014206 f   libucrt:winapi_thunks.obj
 0001:0001325c       ___acrt_FlsGetValue@4      1001425c f   libucrt:winapi_thunks.obj
 0001:000132b2       ___acrt_FlsSetValue@8      100142b2 f   libucrt:winapi_thunks.obj
 0001:0001330b       ___acrt_InitializeCriticalSectionEx@12 1001430b f   libucrt:winapi_thunks.obj
 0001:0001336d       ___acrt_LCMapStringEx@36   1001436d f   libucrt:winapi_thunks.obj
 0001:000133f5       ___acrt_LocaleNameToLCID@8 100143f5 f   libucrt:winapi_thunks.obj
 0001:00013451       ___acrt_MessageBoxW@16     10014451 f   libucrt:winapi_thunks.obj
 0001:0001349a       ___acrt_can_show_message_box 1001449a f   libucrt:winapi_thunks.obj
 0001:000134b3       ___acrt_get_parent_window  100144b3 f   libucrt:winapi_thunks.obj
 0001:00013532       ___acrt_initialize_winapi_thunks 10014532 f   libucrt:winapi_thunks.obj
 0001:00013558       ___acrt_is_interactive     10014558 f   libucrt:winapi_thunks.obj
 0001:000135fe       ___acrt_is_packaged_app    100145fe f   libucrt:winapi_thunks.obj
 0001:00013685       ___acrt_uninitialize_winapi_thunks 10014685 f   libucrt:winapi_thunks.obj
 0001:000136bb       __fcloseall                100146bb f   libucrt:closeall.obj
 0001:0001375b       ___acrt_stdio_free_buffer_nolock 1001475b f   libucrt:_freebuf.obj
 0001:00013799       ___acrt_initialize_locks   10014799 f   libucrt:locks.obj
 0001:000137da       ___acrt_lock               100147da f   libucrt:locks.obj
 0001:000137f1       ___acrt_uninitialize_locks 100147f1 f   libucrt:locks.obj
 0001:00013822       ___acrt_unlock             10014822 f   libucrt:locks.obj
 0001:00013839       ??$?RV<lambda_61cee617f5178ae960314fd4d05640a0>@@AAV<lambda_6978c1fb23f02e42e1d9e99668cc68aa>@@V<lambda_9cd88cf8ad10232537feb2133f08c833>@@@?$__crt_seh_guarded_call@H@@QAEH$$QAV<lambda_61cee617f5178ae960314fd4d05640a0>@@AAV<lambda_6978c1fb23f02e42e1d9e99668cc68aa>@@$$QAV<lambda_9cd88cf8ad10232537feb2133f08c833>@@@Z 10014839 f i libucrt:commit.obj
 0001:000138d1       ??$__acrt_lowio_lock_fh_and_call@V<lambda_6978c1fb23f02e42e1d9e99668cc68aa>@@@@YAHH$$QAV<lambda_6978c1fb23f02e42e1d9e99668cc68aa>@@@Z 100148d1 f i libucrt:commit.obj
 0001:000138f9       __commit                   100148f9 f   libucrt:commit.obj
 0001:00013ef8       __write                    10014ef8 f   libucrt:write.obj
 0001:00013fe3       __write_nolock             10014fe3 f   libucrt:write.obj
 0001:000141ef       ??$?RV<lambda_123407a5e2ac06da108355a851863b7a>@@AAV<lambda_2fe9b910cf3cbf4a0ab98a02ba45b3ec>@@V<lambda_ae55bdf541ad94d75914d381c370e64d>@@@?$__crt_seh_guarded_call@H@@QAEH$$QAV<lambda_123407a5e2ac06da108355a851863b7a>@@AAV<lambda_2fe9b910cf3cbf4a0ab98a02ba45b3ec>@@$$QAV<lambda_ae55bdf541ad94d75914d381c370e64d>@@@Z 100151ef f i libucrt:close.obj
 0001:00014271       ??$__acrt_lowio_lock_fh_and_call@V<lambda_2fe9b910cf3cbf4a0ab98a02ba45b3ec>@@@@YAHH$$QAV<lambda_2fe9b910cf3cbf4a0ab98a02ba45b3ec>@@@Z 10015271 f i libucrt:close.obj
 0001:00014299       __close                    10015299 f   libucrt:close.obj
 0001:00014318       __close_nolock             10015318 f   libucrt:close.obj
 0001:000143b4       __isdigit_l                100153b4 f i libucrt:_ctype.obj
 0001:000143ec       _isdigit                   100153ec f i libucrt:_ctype.obj
 0001:00014580       __tolower_l                10015580 f   libucrt:tolower_toupper.obj
 0001:0001459a       _tolower                   1001559a f   libucrt:tolower_toupper.obj
 0001:000145ca       ??$make_c_string_character_source@DPAPAD@__crt_strtox@@YA?AV?$c_string_character_source@D@0@QBDQAPAD@Z 100155ca f i libucrt:strtox.obj
 0001:000145ca       ??$make_c_string_character_source@_WPAPA_W@__crt_strtox@@YA?AV?$c_string_character_source@_W@0@QB_WQAPA_W@Z 100155ca f i libucrt:strtox.obj
 0001:000145e5       _strtol                    100155e5 f   libucrt:strtox.obj
 0001:00014611       _wcstol                    10015611 f   libucrt:strtox.obj
 0001:0001463d       __mbtowc_l                 1001563d f   libucrt:mbtowc.obj
 0001:00014737       _mbtowc                    10015737 f   libucrt:mbtowc.obj
 0001:00014751       __wctomb_s_l               10015751 f   libucrt:wctomb.obj
 0001:00014872       _wctomb_s                  10015872 f   libucrt:wctomb.obj
 0001:0001488f       _strnlen                   1001588f f   libucrt:strnlen.obj
 0001:000149b6       _wcsnlen                   100159b6 f   libucrt:strnlen.obj
 0001:00014b6d       ??$?RV<lambda_3518db117f0e7cdb002338c5d3c47b6c>@@AAV<lambda_b2ea41f6bbb362cd97d94c6828d90b61>@@V<lambda_abdedf541bb04549bc734292b4a045d4>@@@?$__crt_seh_guarded_call@X@@QAEX$$QAV<lambda_3518db117f0e7cdb002338c5d3c47b6c>@@AAV<lambda_b2ea41f6bbb362cd97d94c6828d90b61>@@$$QAV<lambda_abdedf541bb04549bc734292b4a045d4>@@@Z 10015b6d f i libucrt:per_thread_data.obj
 0001:00014bbd       ??$?RV<lambda_51b6e8b1eb166f2a3faf91f424b38130>@@AAV<lambda_6250bd4b2a391816dd638c3bf72b0bcb>@@V<lambda_0b5a4a3e68152e1d9b943535f5f47bed>@@@?$__crt_seh_guarded_call@X@@QAEX$$QAV<lambda_51b6e8b1eb166f2a3faf91f424b38130>@@AAV<lambda_6250bd4b2a391816dd638c3bf72b0bcb>@@$$QAV<lambda_0b5a4a3e68152e1d9b943535f5f47bed>@@@Z 10015bbd f i libucrt:per_thread_data.obj
 0001:00014c1e       ??$?RV<lambda_5b71d36f03204c0beab531769a5b5694>@@AAV<lambda_be2b3da3f62db62e9dad5dc70221a656>@@V<lambda_8f9ce462984622f9bf76b59e2aaaf805>@@@?$__crt_seh_guarded_call@X@@QAEX$$QAV<lambda_5b71d36f03204c0beab531769a5b5694>@@AAV<lambda_be2b3da3f62db62e9dad5dc70221a656>@@$$QAV<lambda_8f9ce462984622f9bf76b59e2aaaf805>@@@Z 10015c1e f i libucrt:per_thread_data.obj
 0001:00014c69       ??$?RV<lambda_9df27f884b057bc3edfc946cb5b7cf47>@@AAV<lambda_e69574bed617af4e071282c136b37893>@@V<lambda_cc0d902bcbbeb830f749456577db4721>@@@?$__crt_seh_guarded_call@X@@QAEX$$QAV<lambda_9df27f884b057bc3edfc946cb5b7cf47>@@AAV<lambda_e69574bed617af4e071282c136b37893>@@$$QAV<lambda_cc0d902bcbbeb830f749456577db4721>@@@Z 10015c69 f i libucrt:per_thread_data.obj
 0001:00014cb1       ??$__acrt_lock_and_call@V<lambda_6250bd4b2a391816dd638c3bf72b0bcb>@@@@YAXW4__acrt_lock_id@@$$QAV<lambda_6250bd4b2a391816dd638c3bf72b0bcb>@@@Z 10015cb1 f i libucrt:per_thread_data.obj
 0001:00014cd9       ??$__acrt_lock_and_call@V<lambda_b2ea41f6bbb362cd97d94c6828d90b61>@@@@YAXW4__acrt_lock_id@@$$QAV<lambda_b2ea41f6bbb362cd97d94c6828d90b61>@@@Z 10015cd9 f i libucrt:per_thread_data.obj
 0001:00014d01       ??$__acrt_lock_and_call@V<lambda_be2b3da3f62db62e9dad5dc70221a656>@@@@YAXW4__acrt_lock_id@@$$QAV<lambda_be2b3da3f62db62e9dad5dc70221a656>@@@Z 10015d01 f i libucrt:per_thread_data.obj
 0001:00014d29       ??$__acrt_lock_and_call@V<lambda_e69574bed617af4e071282c136b37893>@@@@YAXW4__acrt_lock_id@@$$QAV<lambda_e69574bed617af4e071282c136b37893>@@@Z 10015d29 f i libucrt:per_thread_data.obj
 0001:00014edf       ___acrt_freeptd            10015edf f   libucrt:per_thread_data.obj
 0001:00014f0b       ___acrt_getptd             10015f0b f   libucrt:per_thread_data.obj
 0001:00014f90       ___acrt_getptd_noexit      10015f90 f   libucrt:per_thread_data.obj
 0001:00015015       ___acrt_initialize_ptd     10016015 f   libucrt:per_thread_data.obj
 0001:00015041       ___acrt_uninitialize_ptd   10016041 f   libucrt:per_thread_data.obj
 0001:0001505b       ___acrt_update_locale_info 1001605b f   libucrt:locale_update.obj
 0001:00015088       ___acrt_update_multibyte_info 10016088 f   libucrt:locale_update.obj
 0001:000150b5       ?__acrt_fp_classify@@YA?AW4__acrt_fp_class@@ABN@Z 100160b5 f i libucrt:cvt.obj
 0001:00015121       ?__acrt_fp_is_negative@@YA_NABN@Z 10016121 f i libucrt:cvt.obj
 0001:00015980       ___acrt_fp_format          10016980 f   libucrt:cvt.obj
 0001:00015afc       __fputwc_nolock            10016afc f   libucrt:fputwc.obj
 0001:00015c22       __get_printf_count_output  10016c22 f   libucrt:printf_count_output.obj
 0001:00015c37       ___acrt_stdio_begin_temporary_buffering_nolock 10016c37 f   libucrt:_sftbuf.obj
 0001:00015cec       ___acrt_stdio_end_temporary_buffering_nolock 10016cec f   libucrt:_sftbuf.obj
 0001:00015d25       ___acrt_set_locale_changed 10016d25 f   libucrt:wsetlocale.obj
 0001:00015d30       ___acrt_uninitialize_locale 10016d30 f   libucrt:wsetlocale.obj
 0001:00016148       ___acrt_stdio_flush_and_write_narrow_nolock 10017148 f   libucrt:_flsbuf.obj
 0001:00016153       ___acrt_stdio_flush_and_write_wide_nolock 10017153 f   libucrt:_flsbuf.obj
 0001:0001615e       __fwrite_nolock            1001715e f   libucrt:fwrite.obj
 0001:00016458       ___acrt_stdio_refill_and_read_narrow_nolock 10017458 f   libucrt:_filbuf.obj
 0001:00016463       __query_app_type           10017463 f   libucrt:report_runtime_error.obj
 0001:00016556       __itow_s                   10017556 f   libucrt:xtoa.obj
 0001:0001658b       __set_error_mode           1001758b f   libucrt:set_error_mode.obj
 0001:000165ca       _wcscat_s                  100175ca f   libucrt:wcscat_s.obj
 0001:0001663f       _wcscpy_s                  1001763f f   libucrt:wcscpy_s.obj
 0001:0001678c       _wcsncat_s                 1001778c f   libucrt:wcsncat_s.obj
 0001:00016892       ___acrt_show_wide_message_box 10017892 f   libucrt:crtmbox.obj
 0001:0001689d       ??$?RV<lambda_d92cfe8357b99225085016881b624cb0>@@AAV<lambda_b721fa326cdb32351d23dfa67958c160>@@V<lambda_42d75b0848218ec137fa420c8ba9fdf9>@@@?$__crt_seh_guarded_call@H@@QAEH$$QAV<lambda_d92cfe8357b99225085016881b624cb0>@@AAV<lambda_b721fa326cdb32351d23dfa67958c160>@@$$QAV<lambda_42d75b0848218ec137fa420c8ba9fdf9>@@@Z 1001789d f i libucrt:setvbuf.obj
 0001:000168ee       ??$__acrt_lock_stream_and_call@V<lambda_b721fa326cdb32351d23dfa67958c160>@@@@YAHQAU_iobuf@@$$QAV<lambda_b721fa326cdb32351d23dfa67958c160>@@@Z 100178ee f i libucrt:setvbuf.obj
 0001:000169e3       _setvbuf                   100179e3 f   libucrt:setvbuf.obj
 0001:00016a59       ??$?RV<lambda_a048d3beccc847880fc8490e18b82769>@@AAV<lambda_ec61778202f4f5fc7e7711acc23c3bca>@@V<lambda_f7496a158712204296dd6628a163878e>@@@?$__crt_seh_guarded_call@P6AXH@Z@@QAEP6AXH@Z$$QAV<lambda_a048d3beccc847880fc8490e18b82769>@@AAV<lambda_ec61778202f4f5fc7e7711acc23c3bca>@@$$QAV<lambda_f7496a158712204296dd6628a163878e>@@@Z 10017a59 f i libucrt:signal.obj
 0001:00016ab3       ??$__acrt_lock_and_call@V<lambda_ec61778202f4f5fc7e7711acc23c3bca>@@@@YAP6AXH@ZW4__acrt_lock_id@@$$QAV<lambda_ec61778202f4f5fc7e7711acc23c3bca>@@@Z 10017ab3 f i libucrt:signal.obj
 0001:00016b1d       ?initialize@?$dual_state_global@P6AXH@Z@__crt_state_management@@QAEXQ6AXH@Z@Z 10017b1d f i libucrt:signal.obj
 0001:00016b1d       ?initialize@?$dual_state_global@PAPAD@__crt_state_management@@QAEXQAPAD@Z 10017b1d f i libucrt:environment_initialization.obj
 0001:00016b1d       ?initialize@?$dual_state_global@P6AHPAU_exception@@@Z@__crt_state_management@@QAEXQ6AHPAU_exception@@@Z@Z 10017b1d f i libucrt:matherr.obj
 0001:00016b1d       ?initialize@?$dual_state_global@PAU__crt_locale_data@@@__crt_state_management@@QAEXQAU__crt_locale_data@@@Z 10017b1d f i libucrt:initialization.obj
 0001:00016b1d       ?initialize@?$dual_state_global@P6AHI@Z@__crt_state_management@@QAEXQ6AHI@Z@Z 10017b1d f i libucrt:new_handler.obj
 0001:00016b1d       ?initialize@?$dual_state_global@P6AXPB_W00II@Z@__crt_state_management@@QAEXQ6AXPB_W00II@Z@Z 10017b1d f i libucrt:invalid_parameter.obj
 0001:00016b76       ___acrt_get_sigabrt_handler 10017b76 f   libucrt:signal.obj
 0001:00016b8d       ___acrt_initialize_signal_handlers 10017b8d f   libucrt:signal.obj
 0001:00016bc8       ___fpecode                 10017bc8 f   libucrt:signal.obj
 0001:00016bd1       _raise                     10017bd1 f   libucrt:signal.obj
 0001:00016dd9       ___sys_errlist             10017dd9 f   libucrt:syserr.obj
 0001:00016ddf       ___sys_nerr                10017ddf f   libucrt:syserr.obj
 0001:00016e96       _strncpy_s                 10017e96 f   libucrt:strncpy_s.obj
 0001:00016ea1       ??$?RV<lambda_978dc153c237d78434369da87b74ff60>@@AAV<lambda_ad1ced32f4ac17aa236e5ef05d6b3b7c>@@V<lambda_4a8533e2866a575feecb8298ce776b0d>@@@?$__crt_seh_guarded_call@X@@QAEX$$QAV<lambda_978dc153c237d78434369da87b74ff60>@@AAV<lambda_ad1ced32f4ac17aa236e5ef05d6b3b7c>@@$$QAV<lambda_4a8533e2866a575feecb8298ce776b0d>@@@Z 10017ea1 f i libucrt:mbctype.obj
 0001:00016ee4       ??$__acrt_lock_and_call@V<lambda_ad1ced32f4ac17aa236e5ef05d6b3b7c>@@@@YAXW4__acrt_lock_id@@$$QAV<lambda_ad1ced32f4ac17aa236e5ef05d6b3b7c>@@@Z 10017ee4 f i libucrt:mbctype.obj
 0001:0001737b       ___acrt_initialize_multibyte 1001837b f   libucrt:mbctype.obj
 0001:00017399       ___acrt_update_thread_multibyte_data 10018399 f   libucrt:mbctype.obj
 0001:0001743b       __setmbcp_nolock           1001843b f   libucrt:mbctype.obj
 0001:000176e4       ___dcrt_get_narrow_environment_from_os 100186e4 f   libucrt:get_environment_from_os.obj
 0001:00017767       __recalloc                 10018767 f   libucrt:recalloc.obj
 0001:00017772       __recalloc_base            10018772 f   libucrt:recalloc.obj
 0001:000177df       ___acrt_initialize_heap    100187df f   libucrt:heap_handle.obj
 0001:000177f0       ___acrt_uninitialize_heap  100187f0 f   libucrt:heap_handle.obj
 0001:000177fa       ___acrt_initialize_command_line 100187fa f   libucrt:argv_data.obj
 0001:00017813       ___acrt_uninitialize_command_line 10018813 f   libucrt:argv_data.obj
 0001:00017816       ___acrt_execute_initializers 10018816 f   libucrt:shared_initialization.obj
 0001:00017899       ___acrt_execute_uninitializers 10018899 f   libucrt:shared_initialization.obj
 0001:000178e6       ___acrt_has_user_matherr   100188e6 f   libucrt:matherr.obj
 0001:000178ff       ___acrt_initialize_user_matherr 100188ff f   libucrt:matherr.obj
 0001:00017913       ___acrt_invoke_user_matherr 10018913 f   libucrt:matherr.obj
 0001:0001795c       __query_new_mode           1001895c f   libucrt:new_mode.obj
 0001:00017962       ___pctype_func             10018962 f   libucrt:ctype.obj
 0001:00017988       _iswctype                  10018988 f   libucrt:iswctype.obj
 0001:000179e7       __isctype_l                100189e7 f   libucrt:isctype.obj
 0001:00017ab9       ___acrt_lowio_create_handle_array 10018ab9 f   libucrt:osfinfo.obj
 0001:00017b33       ___acrt_lowio_destroy_handle_array 10018b33 f   libucrt:osfinfo.obj
 0001:00017b68       ___acrt_lowio_ensure_fh_exists 10018b68 f   libucrt:osfinfo.obj
 0001:00017c00       ___acrt_lowio_lock_fh      10018c00 f   libucrt:osfinfo.obj
 0001:00017c23       ___acrt_lowio_set_os_handle 10018c23 f   libucrt:osfinfo.obj
 0001:00017cb7       ___acrt_lowio_unlock_fh    10018cb7 f   libucrt:osfinfo.obj
 0001:00017cda       __alloc_osfhnd             10018cda f   libucrt:osfinfo.obj
 0001:00017dec       __free_osfhnd              10018dec f   libucrt:osfinfo.obj
 0001:00017e7d       __get_osfhandle            10018e7d f   libucrt:osfinfo.obj
 0001:00017ee7       __isatty                   10018ee7 f   libucrt:isatty.obj
 0001:00017f40       _strncmp                   10018f40 f   libucrt:strncmp.obj
 0001:00017fb8       __strnicmp                 10018fb8 f   libucrt:strnicmp.obj
 0001:00018024       __strnicmp_l               10019024 f   libucrt:strnicmp.obj
 0001:000186b5       __sopen_nolock             100196b5 f   libucrt:open.obj
 0001:00018706       __sopen_s                  10019706 f   libucrt:open.obj
 0001:00018726       __wsopen_nolock            10019726 f   libucrt:open.obj
 0001:00018b0b       ___acrt_DownlevelLocaleNameToLCID 10019b0b f   libucrt:lcidtoname_downlevel.obj
 0001:00018b37       __putwch_nolock            10019b37 f   libucrt:putwch.obj
 0001:00018b7c       __isleadbyte_l             10019b7c f i libucrt:_wctype.obj
 0001:00018dd2       ___acrt_LCMapStringA       10019dd2 f   libucrt:lcmapstringa.obj
 0001:00018e1d       __freea_crt                10019e1d f i libucrt:lcmapstringa.obj
 0001:00018e3d       ___acrt_add_locale_ref     10019e3d f   libucrt:locale_refcounting.obj
 0001:00018eba       ___acrt_free_locale        10019eba f   libucrt:locale_refcounting.obj
 0001:00019004       ___acrt_locale_add_lc_time_reference 1001a004 f   libucrt:locale_refcounting.obj
 0001:0001902d       ___acrt_locale_free_lc_time_if_unreferenced 1001a02d f   libucrt:locale_refcounting.obj
 0001:0001905d       ___acrt_locale_release_lc_time_reference 1001a05d f   libucrt:locale_refcounting.obj
 0001:00019086       ___acrt_release_locale_ref 1001a086 f   libucrt:locale_refcounting.obj
 0001:00019107       ___acrt_update_thread_locale_data 1001a107 f   libucrt:locale_refcounting.obj
 0001:0001917e       __updatetlocinfoEx_nolock  1001a17e f   libucrt:locale_refcounting.obj
 0001:000191ce       ___acrt_fp_strflt_to_string 1001a1ce f   libucrt:_fptostr.obj
 0001:0001928a       ??0scoped_fp_state_reset@?A0x48fbfdd4@@QAE@XZ 1001a28a f i libucrt:cfout.obj
 0001:000192c0       ?divide@__crt_strtox@@YA_KAAUbig_integer@1@ABU21@@Z 1001a2c0 f i libucrt:cfout.obj
 0001:0001976f       ___acrt_fltout             1001a76f f   libucrt:cfout.obj
 0001:0001ab0b       ___acrt_locale_free_monetary 1001bb0b f   libucrt:initmon.obj
 0001:0001ac09       ___acrt_locale_free_numeric 1001bc09 f   libucrt:initnum.obj
 0001:0001acae       ___acrt_locale_free_time   1001bcae f   libucrt:inittime.obj
 0001:0001ad92       ___acrt_GetStringTypeA     1001bd92 f   libucrt:getstringtypea.obj
 0001:0001aeaf       ___acrt_stdio_allocate_buffer_nolock 1001beaf f   libucrt:_getbuf.obj
 0001:0001af1b       __msize                    1001bf1b f   libucrt:msize.obj
 0001:0001af4e       __realloc_base             1001bf4e f   libucrt:realloc_base.obj
 0001:0001afc0       ___ascii_strnicmp          1001bfc0 f   libucrt:_strnicm.obj
 0001:0001b021       __get_fmode                1001c021 f   libucrt:setmode.obj
 0001:0001b04d       __setmode_nolock           1001c04d f   libucrt:setmode.obj
 0001:0001b11e       ___acrt_copy_path_to_wide_string 1001c11e f   libucrt:string_utilities.obj
 0001:0001b1e5       __chsize_nolock            1001c1e5 f   libucrt:chsize.obj
 0001:0001b376       ___dcrt_lowio_initialize_console_output 1001c376 f   libucrt:initcon.obj
 0001:0001b395       ___dcrt_terminate_console_output 1001c395 f   libucrt:initcon.obj
 0001:0001b3ac       ___strncnt                 1001c3ac f   libucrt:strncnt.obj
 0001:0001b3c8       _fegetenv                  1001c3c8 f   libucrt:fegetenv.obj
 0001:0001b3e5       _fesetenv                  1001c3e5 f   libucrt:fesetenv.obj
 0001:0001b42e       _feholdexcept              1001c42e f   libucrt:feholdexcept.obj
 0001:0001b480       _log10                     1001c480 f   libucrt:log10.obj
 0001:0001b4c0       __CIlog10                  1001c4c0 f   libucrt:log10.obj
 0001:0001b4fb       __CIlog10_default          1001c4fb f   libucrt:log10.obj
 0001:0001b50f       __log10_default            1001c50f     libucrt:log10.obj
 0001:0001b5d0       _ceil                      1001c5d0 f   libucrt:ceil_pentium4.obj
 0001:0001b610       __ceil_pentium4            1001c610 f   libucrt:ceil_pentium4.obj
 0001:0001b990       __getfpcontrolword         1001c990 f   libucrt:_fenvutils.obj
 0001:0001b9d3       __getfpstatusword          1001c9d3 f   libucrt:_fenvutils.obj
 0001:0001ba7b       __setfpcontrolword         1001ca7b f   libucrt:_fenvutils.obj
 0001:0001bafb       __setfpstatusword          1001cafb f   libucrt:_fenvutils.obj
 0001:0001bb7b       __clearfp                  1001cb7b f   libucrt:ieee87.obj
 0001:0001bc59       ___acrt_initialize_sse2    1001cc59 f   libucrt:mathfcns.obj
 0001:0001bc70       __CIlog10_pentium4         1001cc70 f   libucrt:log10_pentium4.obj
 0001:0001bc88       __log10_pentium4           1001cc88     libucrt:log10_pentium4.obj
 0001:0001bf11       __fFEXP                    1001cf11     libucrt:87tran.obj
 0001:0001bf68       __rtinfpopse               1001cf68     libucrt:87tran.obj
 0001:0001bf6a       __rtinfnpopse              1001cf6a     libucrt:87tran.obj
 0001:0001bf7a       __fFLN                     1001cf7a     libucrt:87tran.obj
 0001:0001c02f       __rtinfpop                 1001d02f     libucrt:87tran.obj
 0001:0001c031       __rtinfnpop                1001d031     libucrt:87tran.obj
 0001:0001c04e       __ffexpm1                  1001d04e     libucrt:87tran.obj
 0001:0001c100       __trandisp1                1001d100 f   libucrt:87disp.obj
 0001:0001c167       __trandisp2                1001d167 f   libucrt:87disp.obj
 0001:0001c1f3       __rttospopde               1001d1f3     libucrt:87disp.obj
 0001:0001c1f8       __rttospop                 1001d1f8     libucrt:87disp.obj
 0001:0001c1fa       __rtnospop                 1001d1fa     libucrt:87disp.obj
 0001:0001c1fc       __rttosnpop                1001d1fc     libucrt:87disp.obj
 0001:0001c1fd       __rtnospopde               1001d1fd     libucrt:87disp.obj
 0001:0001c204       __rtzeropop                1001d204     libucrt:87disp.obj
 0001:0001c206       __rtzeronpop               1001d206     libucrt:87disp.obj
 0001:0001c20b       __rtzerospop               1001d20b     libucrt:87disp.obj
 0001:0001c218       __rtonepop                 1001d218     libucrt:87disp.obj
 0001:0001c21a       __rtonenpop                1001d21a     libucrt:87disp.obj
 0001:0001c21f       __tosnan1                  1001d21f     libucrt:87disp.obj
 0001:0001c24a       __nosnan2                  1001d24a     libucrt:87disp.obj
 0001:0001c24c       __tosnan2                  1001d24c     libucrt:87disp.obj
 0001:0001c274       __nan2                     1001d274     libucrt:87disp.obj
 0001:0001c2b3       __rtindfpop                1001d2b3     libucrt:87disp.obj
 0001:0001c2b5       __rtindfnpop               1001d2b5     libucrt:87disp.obj
 0001:0001c2c6       __rttosnpopde              1001d2c6     libucrt:87disp.obj
 0001:0001c2d0       __rtatan2inf               1001d2d0     libucrt:87disp.obj
 0001:0001c2ed       __rtchsifneg               1001d2ed     libucrt:87disp.obj
 0001:0001c300       __twoToTOS                 1001d300 f   libucrt:common.obj
 0001:0001c315       __load_CW                  1001d315 f   libucrt:common.obj
 0001:0001c32c       __convertTOStoQNaN         1001d32c f   libucrt:common.obj
 0001:0001c345       __fload_withFB             1001d345 f   libucrt:common.obj
 0001:0001c388       __checkTOS_withFB          1001d388 f   libucrt:common.obj
 0001:0001c39e       __fast_exit                1001d39e f   libucrt:common.obj
 0001:0001c3ab       __math_exit                1001d3ab f   libucrt:common.obj
 0001:0001c3d5       __check_overflow_exit      1001d3d5 f   libucrt:common.obj
 0001:0001c3e9       __check_range_exit         1001d3e9 f   libucrt:common.obj
 0001:0001c490       __startTwoArgErrorHandling 1001d490 f   libucrt:genexcep.obj
 0001:0001c4a7       __startOneArgErrorHandling 1001d4a7 f   libucrt:genexcep.obj
 0001:0001c4e3       ___libm_error_support      1001d4e3 f   libucrt:libm_error.obj
 0001:0001c6fb       __ceil_default             1001d6fb f   libucrt:ceil.obj
 0001:0001c7b4       __clrfp                    1001d7b4 f   libucrt:fpctrl.obj
 0001:0001c7c7       __ctrlfp                   1001d7c7 f   libucrt:fpctrl.obj
 0001:0001c7f3       __set_statfp               1001d7f3 f   libucrt:fpctrl.obj
 0001:0001c84e       __statfp                   1001d84e f   libucrt:fpctrl.obj
 0001:0001c860       __d_inttype                1001d860 f   libucrt:powhlp.obj
 0001:0001c8ca       __powhlp                   1001d8ca f   libucrt:powhlp.obj
 0001:0001c9f5       __87except                 1001d9f5 f   libucrt:87except.obj
 0001:0001cb00       __frnd                     1001db00 f   libucrt:frnd.obj
 0001:0001cb16       __errcode                  1001db16 f   libucrt:fpexcept.obj
 0001:0001cb4a       __except1                  1001db4a f   libucrt:fpexcept.obj
 0001:0001cc18       __handle_exc               1001dc18 f   libucrt:fpexcept.obj
 0001:0001cdf8       __raise_exc                1001ddf8 f   libucrt:fpexcept.obj
 0001:0001ce1b       __raise_exc_ex             1001de1b f   libucrt:fpexcept.obj
 0001:0001d10c       __set_errno_from_matherr   1001e10c f   libucrt:fpexcept.obj
 0001:0001d13b       __umatherr                 1001e13b f   libucrt:fpexcept.obj
 0001:0001d1dd       __decomp                   1001e1dd f   libucrt:util.obj
 0001:0001d2b1       __set_exp                  1001e2b1 f   libucrt:util.obj
 0001:0001d2e0       __sptype                   1001e2e0 f   libucrt:util.obj
 0001:0001d33e       __fpclass                  1001e33e f   libucrt:ieeemisc.obj
 0001:0001d3e2       _IsProcessorFeaturePresent@4 1001e3e2 f   kernel32:KERNEL32.dll
 0001:0001d3e8       _RtlUnwind@16              1001e3e8 f   kernel32:KERNEL32.dll
 0001:0001d3ee       _SystemFunction036@8       1001e3ee f   advapi32:ADVAPI32.dll
 0001:0001d3f4       ?DloadAcquireSectionWriteAccess@@YGXXZ 1001e3f4 f i DelayImp:delayhlp.obj
 0001:0001d427       ?DloadGetSRWLockFunctionPointers@@YGEXZ 1001e427 f i DelayImp:delayhlp.obj
 0001:0001d4a2       ?DloadLock@@YGXXZ          1001e4a2 f i DelayImp:delayhlp.obj
 0001:0001d4ff       ?DloadMakePermanentImageCommit@@YGXPAXK@Z 1001e4ff f i DelayImp:delayhlp.obj
 0001:0001d571       ?DloadObtainSection@@YGPAXPAK0@Z 1001e571 f i DelayImp:delayhlp.obj
 0001:0001d5f4       ?DloadProtectSection@@YGXKPAK@Z 1001e5f4 f i DelayImp:delayhlp.obj
 0001:0001d664       ?DloadReleaseSectionWriteAccess@@YGXXZ 1001e664 f i DelayImp:delayhlp.obj
 0001:0001d69c       ?DloadUnlock@@YGXXZ        1001e69c f i DelayImp:delayhlp.obj
 0001:0001d6e6       ___delayLoadHelper2@8      1001e6e6 f   DelayImp:delayhlp.obj
 0001:0001d970       __FindPESection            1001e970 f   LIBCMT:pesect.obj
 0001:0001d9c0       __IsNonwritableInCurrentImage 1001e9c0 f   LIBCMT:pesect.obj
 0001:0001da80       __ValidateImageBase        1001ea80 f   LIBCMT:pesect.obj
 0001:0001dac0       __aulldvrm                 1001eac0 f   LIBCMT:ulldvrm.obj
 0001:0001db60       __alldiv                   1001eb60 f   LIBCMT:lldiv.obj
 0001:0001dc10       __chkstk                   1001ec10 f   LIBCMT:chkstk.obj
 0001:0001dc10       __alloca_probe             1001ec10 f   LIBCMT:chkstk.obj
 0001:0001dc40       __SEH_prolog4_GS           1001ec40 f   LIBCMT:_sehprolg4gs_.obj
 0001:0001dc89       __SEH_epilog4_GS           1001ec89 f   LIBCMT:_sehprolg4gs_.obj
 0001:0001dca0       __allmul                   1001eca0 f   LIBCMT:llmul.obj
 0001:0001dce0       __alldvrm                  1001ece0 f   LIBCMT:lldvrm.obj
 0001:0001ddc0       __aullshr                  1001edc0 f   LIBCMT:ullshr.obj
 0001:0001dde0       __alloca_probe_16          1001ede0 f   LIBCMT:alloca16.obj
 0001:0001ddf6       __alloca_probe_8           1001edf6     LIBCMT:alloca16.obj
 0001:0001de10       __allshl                   1001ee10 f   LIBCMT:llshl.obj
 0001:0001de30       __ftol2_sse                1001ee30 f   LIBCMT:_ftol2_.obj
 0001:0001de39       __ftol2_pentium4           1001ee39 f   LIBCMT:_ftol2_.obj
 0001:0001de4c       __ftol2_sse_excpt          1001ee4c f   LIBCMT:_ftol2_.obj
 0001:0001de70       __ftol2                    1001ee70 f   LIBCMT:_ftol2_.obj
 0001:0001def0       _memcpy                    1001eef0 f   libvcruntime:memcpy.obj
 0001:0001e470       _memmove                   1001f470 f   libvcruntime:memmove.obj
 0001:0001e9f0       _strrchr                   1001f9f0 f   libvcruntime:strrchr.obj
 0001:0001eb30       __ftoui3                   1001fb30 f   LIBCMT:_ftol3_.obj
 0001:0001eb3f       __ftoul3                   1001fb3f f   LIBCMT:_ftol3_.obj
 0001:0001eb4e       __ftol3                    1001fb4e f   LIBCMT:_ftol3_.obj
 0001:0001eb5b       __ftol3_NaN                1001fb5b f   LIBCMT:_ftol3_.obj
 0001:0001eb73       __ftol3_work               1001fb73 f   LIBCMT:_ftol3_.obj
 0001:0001ebf9       __ftol3_common             1001fbf9 f   LIBCMT:_ftol3_.obj
 0001:0001ecbb       __ftol3_arg_error          1001fcbb f   LIBCMT:_ftol3_.obj
 0001:0001eccd       __ftol3_except             1001fccd f   LIBCMT:_ftol3_.obj
 0001:0001ed11       __dtoui3                   1001fd11 f   LIBCMT:_ftol3_.obj
 0001:0001ed20       __dtoul3                   1001fd20 f   LIBCMT:_ftol3_.obj
 0001:0001ed2f       __dtol3                    1001fd2f f   LIBCMT:_ftol3_.obj
 0001:0001ed3c       __dtol3_NaN                1001fd3c f   LIBCMT:_ftol3_.obj
 0001:0001ed59       __dtol3_work               1001fd59 f   LIBCMT:_ftol3_.obj
 0001:0001ee40       __ultod3                   1001fe40 f   LIBCMT:_ftol3_.obj
 0001:0001ee80       __ltod3                    1001fe80 f   LIBCMT:_ftol3_.obj
 0002:00000000       __imp__SystemFunction036@8 10020000     advapi32:ADVAPI32.dll
 0002:00000004       \177ADVAPI32_NULL_THUNK_DATA 10020004     advapi32:ADVAPI32.dll
 0002:00000008       __imp__UnhandledExceptionFilter@4 10020008     kernel32:KERNEL32.dll
 0002:0000000c       __imp__SetUnhandledExceptionFilter@4 1002000c     kernel32:KERNEL32.dll
 0002:00000010       __imp__GetCurrentProcess@0 10020010     kernel32:KERNEL32.dll
 0002:00000014       __imp__TerminateProcess@8  10020014     kernel32:KERNEL32.dll
 0002:00000018       __imp__IsProcessorFeaturePresent@4 10020018     kernel32:KERNEL32.dll
 0002:0000001c       __imp__IsDebuggerPresent@0 1002001c     kernel32:KERNEL32.dll
 0002:00000020       __imp__GetStartupInfoW@4   10020020     kernel32:KERNEL32.dll
 0002:00000024       __imp__GetModuleHandleW@4  10020024     kernel32:KERNEL32.dll
 0002:00000028       __imp__QueryPerformanceCounter@4 10020028     kernel32:KERNEL32.dll
 0002:0000002c       __imp__GetCurrentProcessId@0 1002002c     kernel32:KERNEL32.dll
 0002:00000030       __imp__GetCurrentThreadId@0 10020030     kernel32:KERNEL32.dll
 0002:00000034       __imp__GetSystemTimeAsFileTime@4 10020034     kernel32:KERNEL32.dll
 0002:00000038       __imp__InitializeSListHead@4 10020038     kernel32:KERNEL32.dll
 0002:0000003c       __imp__GetLastError@0      1002003c     kernel32:KERNEL32.dll
 0002:00000040       __imp__GetModuleFileNameW@12 10020040     kernel32:KERNEL32.dll
 0002:00000044       __imp__RaiseException@16   10020044     kernel32:KERNEL32.dll
 0002:00000048       __imp__InterlockedFlushSList@4 10020048     kernel32:KERNEL32.dll
 0002:0000004c       __imp__SetLastError@4      1002004c     kernel32:KERNEL32.dll
 0002:00000050       __imp__EnterCriticalSection@4 10020050     kernel32:KERNEL32.dll
 0002:00000054       __imp__LeaveCriticalSection@4 10020054     kernel32:KERNEL32.dll
 0002:00000058       __imp__DeleteCriticalSection@4 10020058     kernel32:KERNEL32.dll
 0002:0000005c       __imp__InitializeCriticalSectionAndSpinCount@8 1002005c     kernel32:KERNEL32.dll
 0002:00000060       __imp__TlsAlloc@0          10020060     kernel32:KERNEL32.dll
 0002:00000064       __imp__TlsGetValue@4       10020064     kernel32:KERNEL32.dll
 0002:00000068       __imp__TlsSetValue@8       10020068     kernel32:KERNEL32.dll
 0002:0000006c       __imp__TlsFree@4           1002006c     kernel32:KERNEL32.dll
 0002:00000070       __imp__FreeLibrary@4       10020070     kernel32:KERNEL32.dll
 0002:00000074       __imp__GetProcAddress@8    10020074     kernel32:KERNEL32.dll
 0002:00000078       __imp__LoadLibraryExW@12   10020078     kernel32:KERNEL32.dll
 0002:0000007c       __imp__RtlUnwind@16        1002007c     kernel32:KERNEL32.dll
 0002:00000080       __imp__ReadFile@20         10020080     kernel32:KERNEL32.dll
 0002:00000084       __imp__GetStdHandle@4      10020084     kernel32:KERNEL32.dll
 0002:00000088       __imp__GetFileType@4       10020088     kernel32:KERNEL32.dll
 0002:0000008c       __imp__GetModuleHandleExW@12 1002008c     kernel32:KERNEL32.dll
 0002:00000090       __imp__WriteConsoleW@20    10020090     kernel32:KERNEL32.dll
 0002:00000094       __imp__ExitProcess@4       10020094     kernel32:KERNEL32.dll
 0002:00000098       __imp__MultiByteToWideChar@24 10020098     kernel32:KERNEL32.dll
 0002:0000009c       __imp__WideCharToMultiByte@32 1002009c     kernel32:KERNEL32.dll
 0002:000000a0       __imp__HeapAlloc@12        100200a0     kernel32:KERNEL32.dll
 0002:000000a4       __imp__SetFilePointerEx@20 100200a4     kernel32:KERNEL32.dll
 0002:000000a8       __imp__GetConsoleMode@8    100200a8     kernel32:KERNEL32.dll
 0002:000000ac       __imp__ReadConsoleW@20     100200ac     kernel32:KERNEL32.dll
 0002:000000b0       __imp__LCMapStringW@24     100200b0     kernel32:KERNEL32.dll
 0002:000000b4       __imp__FlushFileBuffers@4  100200b4     kernel32:KERNEL32.dll
 0002:000000b8       __imp__WriteFile@20        100200b8     kernel32:KERNEL32.dll
 0002:000000bc       __imp__GetConsoleCP@0      100200bc     kernel32:KERNEL32.dll
 0002:000000c0       __imp__CloseHandle@4       100200c0     kernel32:KERNEL32.dll
 0002:000000c4       __imp__GetACP@0            100200c4     kernel32:KERNEL32.dll
 0002:000000c8       __imp__OutputDebugStringW@4 100200c8     kernel32:KERNEL32.dll
 0002:000000cc       __imp__WaitForSingleObjectEx@12 100200cc     kernel32:KERNEL32.dll
 0002:000000d0       __imp__CreateThread@24     100200d0     kernel32:KERNEL32.dll
 0002:000000d4       __imp__IsValidCodePage@4   100200d4     kernel32:KERNEL32.dll
 0002:000000d8       __imp__GetOEMCP@0          100200d8     kernel32:KERNEL32.dll
 0002:000000dc       __imp__GetCPInfo@8         100200dc     kernel32:KERNEL32.dll
 0002:000000e0       __imp__GetEnvironmentStringsW@0 100200e0     kernel32:KERNEL32.dll
 0002:000000e4       __imp__FreeEnvironmentStringsW@4 100200e4     kernel32:KERNEL32.dll
 0002:000000e8       __imp__GetProcessHeap@0    100200e8     kernel32:KERNEL32.dll
 0002:000000ec       __imp__GetCommandLineA@0   100200ec     kernel32:KERNEL32.dll
 0002:000000f0       __imp__GetCommandLineW@0   100200f0     kernel32:KERNEL32.dll
 0002:000000f4       __imp__GetStringTypeW@16   100200f4     kernel32:KERNEL32.dll
 0002:000000f8       __imp__SetStdHandle@8      100200f8     kernel32:KERNEL32.dll
 0002:000000fc       __imp__CreateFileW@28      100200fc     kernel32:KERNEL32.dll
 0002:00000100       __imp__HeapSize@12         10020100     kernel32:KERNEL32.dll
 0002:00000104       __imp__HeapReAlloc@16      10020104     kernel32:KERNEL32.dll
 0002:00000108       __imp__SetEndOfFile@4      10020108     kernel32:KERNEL32.dll
 0002:0000010c       __imp__DecodePointer@4     1002010c     kernel32:KERNEL32.dll
 0002:00000110       __imp__HeapFree@12         10020110     kernel32:KERNEL32.dll
 0002:00000114       __imp__GetModuleHandleA@4  10020114     kernel32:KERNEL32.dll
 0002:00000118       __imp__GetSystemInfo@4     10020118     kernel32:KERNEL32.dll
 0002:0000011c       __imp__VirtualProtect@16   1002011c     kernel32:KERNEL32.dll
 0002:00000120       __imp__VirtualQuery@12     10020120     kernel32:KERNEL32.dll
 0002:00000124       __imp__LoadLibraryExA@12   10020124     kernel32:KERNEL32.dll
 0002:00000128       \177KERNEL32_NULL_THUNK_DATA 10020128     kernel32:KERNEL32.dll
 0002:0000012c       ___guard_check_icall_fptr  1002012c     LIBCMT:guard_support.obj
 0002:00000130       ___xc_a                    10020130     LIBCMT:initializers.obj
 0002:00000140       __register_WebWorkerThreads_ 10020140     WebWorkerThreads.obj
 0002:00000144       ___xc_z                    10020144     LIBCMT:initializers.obj
 0002:00000148       ___xi_a                    10020148     LIBCMT:initializers.obj
 0002:0000014c       ___acrt_stdio_initializer  1002014c     libucrt:stdio_initializer.obj
 0002:00000150       ___acrt_multibyte_initializer 10020150     libucrt:multibyte_initializer.obj
 0002:00000154       ___acrt_tran_sse2_initializer 10020154     libucrt:sse2_initializer.obj
 0002:00000158       ___xi_z                    10020158     LIBCMT:initializers.obj
 0002:0000015c       ___xp_a                    1002015c     LIBCMT:initializers.obj
 0002:00000160       ___acrt_locale_terminator  10020160     libucrt:locale_initializer.obj
 0002:00000164       ___dcrt_console_output_terminator 10020164     libucrt:console_output_initializer.obj
 0002:00000168       ___acrt_stdio_terminator   10020168     libucrt:stdio_initializer.obj
 0002:0000016c       ___xp_z                    1002016c     LIBCMT:initializers.obj
 0002:00000170       ___xt_a                    10020170     LIBCMT:initializers.obj
 0002:00000174       ___xt_z                    10020174     LIBCMT:initializers.obj
 0002:00000180       __sz_node_exe              10020180     node:node.exe
 0002:00000190       ??_7type_info@@6B@         10020190     LIBCMT:std_type_info_static.obj
 0002:00000194       __pRawDllMain              10020194     LIBCMT:dll_dllmain.obj
 0002:00000194       __pDefaultRawDllMain       10020194     LIBCMT:dll_dllmain.obj
 0002:000001a4       ??_7exception@std@@6B@     100201a4     LIBCMT:throw_bad_alloc.obj
 0002:000001ac       ??_C@_0BC@EOODALEL@Unknown?5exception?$AA@ 100201ac     LIBCMT:throw_bad_alloc.obj
 0002:000001c4       ??_7bad_alloc@std@@6B@     100201c4     LIBCMT:throw_bad_alloc.obj
 0002:000001cc       ??_C@_0P@GHFPNOJB@bad?5allocation?$AA@ 100201cc     LIBCMT:throw_bad_alloc.obj
 0002:000001e0       ??_7bad_array_new_length@std@@6B@ 100201e0     LIBCMT:throw_bad_alloc.obj
 0002:000001e8       ??_C@_0BF@KINCDENJ@bad?5array?5new?5length?$AA@ 100201e8     LIBCMT:throw_bad_alloc.obj
 0002:00000200       __Microsoft_CRTProvider    10020200     libvcruntime:telemetry.obj
 0002:00000204       ??_C@_00CNPNBAHC@?$AA@     10020204     libvcruntime:telemetry.obj
 0002:00000208       ??_C@_11LOCGONAA@?$AA?$AA@ 10020208     libvcruntime:telemetry.obj
 0002:0000020c       ??_C@_0O@JEOPJOMI@Main?5Invoked?4?$AA@ 1002020c     libvcruntime:telemetry.obj
 0002:0000021c       ??_C@_0P@NEAEIBDO@Main?5Returned?4?$AA@ 1002021c     libvcruntime:telemetry.obj
 0002:0000025c       ??_C@_1BC@DNHGCMLG@?$AAa?$AAd?$AAv?$AAa?$AAp?$AAi?$AA3?$AA2?$AA?$AA@ 1002025c     libvcruntime:winapi_downlevel.obj
 0002:00000270       ??_C@_1DM@KHCHBNEB@?$AAa?$AAp?$AAi?$AA?9?$AAm?$AAs?$AA?9?$AAw?$AAi?$AAn?$AA?9?$AAc?$AAo?$AAr?$AAe?$AA?9?$AAf?$AAi?$AAb?$AAe?$AAr?$AAs?$AA?9?$AAl?$AA1?$AA?9?$AA1?$AA?9?$AA1?$AA?$AA@ 10020270     libvcruntime:winapi_downlevel.obj
 0002:000002ac       ??_C@_1DK@LPPGFMPP@?$AAa?$AAp?$AAi?$AA?9?$AAm?$AAs?$AA?9?$AAw?$AAi?$AAn?$AA?9?$AAc?$AAo?$AAr?$AAe?$AA?9?$AAs?$AAy?$AAn?$AAc?$AAh?$AA?9?$AAl?$AA1?$AA?9?$AA2?$AA?9?$AA0?$AA?$AA@ 100202ac     libvcruntime:winapi_downlevel.obj
 0002:000002e8       ??_C@_1BC@GDMECMAK@?$AAk?$AAe?$AAr?$AAn?$AAe?$AAl?$AA3?$AA2?$AA?$AA@ 100202e8     libvcruntime:winapi_downlevel.obj
 0002:00000300       ??_C@_0O@BAMBGLIE@EventRegister?$AA@ 10020300     libvcruntime:winapi_downlevel.obj
 0002:00000314       ??_C@_0BE@BJEEGHGK@EventSetInformation?$AA@ 10020314     libvcruntime:winapi_downlevel.obj
 0002:0000032c       ??_C@_0BA@FAKLIPIC@EventUnregister?$AA@ 1002032c     libvcruntime:winapi_downlevel.obj
 0002:00000340       ??_C@_0BD@PKLHJPHD@EventWriteTransfer?$AA@ 10020340     libvcruntime:winapi_downlevel.obj
 0002:0000035c       ??_C@_08KNHFBNJ@FlsAlloc?$AA@ 1002035c     libvcruntime:winapi_downlevel.obj
 0002:00000370       ??_C@_07PEJMOBNF@FlsFree?$AA@ 10020370     libvcruntime:winapi_downlevel.obj
 0002:00000380       ??_C@_0M@GDNOONDI@FlsGetValue?$AA@ 10020380     libvcruntime:winapi_downlevel.obj
 0002:00000394       ??_C@_0M@JCPCPOEF@FlsSetValue?$AA@ 10020394     libvcruntime:winapi_downlevel.obj
 0002:000003a8       ??_C@_0BM@HCFOFFN@InitializeCriticalSectionEx?$AA@ 100203a8     libvcruntime:winapi_downlevel.obj
 0002:00000558       ??_C@_08EHJDFFNH@__based?$CI?$AA@ 10020558     libvcruntime:undname.obj
 0002:00000564       ??_C@_07KOLFKCDI@__cdecl?$AA@ 10020564     libvcruntime:undname.obj
 0002:0000056c       ??_C@_08GHMPAG@__pascal?$AA@ 1002056c     libvcruntime:undname.obj
 0002:00000578       ??_C@_09IFJBGAPI@__stdcall?$AA@ 10020578     libvcruntime:undname.obj
 0002:00000584       ??_C@_0L@NPHFGOKO@__thiscall?$AA@ 10020584     libvcruntime:undname.obj
 0002:00000590       ??_C@_0L@JMKHOMEK@__fastcall?$AA@ 10020590     libvcruntime:undname.obj
 0002:0000059c       ??_C@_0N@BCKKPABJ@__vectorcall?$AA@ 1002059c     libvcruntime:undname.obj
 0002:000005ac       ??_C@_09HIJEGCPM@__clrcall?$AA@ 100205ac     libvcruntime:undname.obj
 0002:000005b8       ??_C@_06GHPCKEAG@__eabi?$AA@ 100205b8     libvcruntime:undname.obj
 0002:000005c0       ??_C@_07JOMMBBKO@__ptr64?$AA@ 100205c0     libvcruntime:undname.obj
 0002:000005c8       ??_C@_0L@PILCLIHE@__restrict?$AA@ 100205c8     libvcruntime:undname.obj
 0002:000005d4       ??_C@_0M@GFIIJFMG@__unaligned?$AA@ 100205d4     libvcruntime:undname.obj
 0002:000005e0       ??_C@_09DHDLOLLB@restrict?$CI?$AA@ 100205e0     libvcruntime:undname.obj
 0002:000005ec       ??_C@_04NIHEBCM@?5new?$AA@ 100205ec     libvcruntime:undname.obj
 0002:000005f4       ??_C@_07FPCDHGMM@?5delete?$AA@ 100205f4     libvcruntime:undname.obj
 0002:000005fc       ??_C@_01NEMOKFLO@?$DN?$AA@ 100205fc     libvcruntime:undname.obj
 0002:00000600       ??_C@_02GPIOPFAK@?$DO?$DO?$AA@ 10020600     libvcruntime:undname.obj
 0002:00000604       ??_C@_02FODMEDOG@?$DM?$DM?$AA@ 10020604     libvcruntime:undname.obj
 0002:00000608       ??_C@_01DCLJPIOD@?$CB?$AA@ 10020608     libvcruntime:undname.obj
 0002:0000060c       ??_C@_02EGOFBIJA@?$DN?$DN?$AA@ 1002060c     libvcruntime:undname.obj
 0002:00000610       ??_C@_02FDNJECIE@?$CB?$DN?$AA@ 10020610     libvcruntime:undname.obj
 0002:00000614       ??_C@_02GPECMEKF@?$FL?$FN?$AA@ 10020614     libvcruntime:undname.obj
 0002:00000618       ??_C@_08LHJFAFGD@operator?$AA@ 10020618     libvcruntime:undname.obj
 0002:00000624       ??_C@_02HBOOOICD@?9?$DO?$AA@ 10020624     libvcruntime:undname.obj
 0002:00000628       ??_C@_01NBENCBCI@?$CK?$AA@ 10020628     libvcruntime:undname.obj
 0002:0000062c       ??_C@_02ECNGHCIF@?$CL?$CL?$AA@ 1002062c     libvcruntime:undname.obj
 0002:00000630       ??_C@_02BAABKJLB@?9?9?$AA@ 10020630     libvcruntime:undname.obj
 0002:00000634       ??_C@_01JOAMLHOP@?9?$AA@   10020634     libvcruntime:undname.obj
 0002:00000638       ??_C@_01MIFGBAGJ@?$CL?$AA@ 10020638     libvcruntime:undname.obj
 0002:0000063c       ??_C@_01HNPIGOCE@?$CG?$AA@ 1002063c     libvcruntime:undname.obj
 0002:00000640       ??_C@_03MNHNFDLC@?9?$DO?$CK?$AA@ 10020640     libvcruntime:undname.obj
 0002:00000644       ??_C@_01KMDKNFGN@?1?$AA@   10020644     libvcruntime:undname.obj
 0002:00000648       ??_C@_01FGNFDNOH@?$CF?$AA@ 10020648     libvcruntime:undname.obj
 0002:0000064c       ??_C@_01MNNFJEPP@?$DM?$AA@ 1002064c     libvcruntime:undname.obj
 0002:00000650       ??_C@_02EHCHHCKH@?$DM?$DN?$AA@ 10020650     libvcruntime:undname.obj
 0002:00000654       ??_C@_01PPODPGHN@?$DO?$AA@ 10020654     libvcruntime:undname.obj
 0002:00000658       ??_C@_02EEKDKGMJ@?$DO?$DN?$AA@ 10020658     libvcruntime:undname.obj
 0002:0000065c       ??_C@_01IHBHIGKO@?0?$AA@   1002065c     libvcruntime:undname.obj
 0002:00000660       ??_C@_02HCKGKOFO@?$CI?$CJ?$AA@ 10020660     libvcruntime:undname.obj
 0002:00000664       ??_C@_01PJKLJHI@?$HO?$AA@  10020664     libvcruntime:undname.obj
 0002:00000668       ??_C@_01JKBOJNNK@?$FO?$AA@ 10020668     libvcruntime:undname.obj
 0002:0000066c       ??_C@_01DNKMNLPK@?$HM?$AA@ 1002066c     libvcruntime:undname.obj
 0002:00000670       ??_C@_02PPKAJPJL@?$CG?$CG?$AA@ 10020670     libvcruntime:undname.obj
 0002:00000674       ??_C@_02NONPIBCD@?$HM?$HM?$AA@ 10020674     libvcruntime:undname.obj
 0002:00000678       ??_C@_02FPIMKNGF@?$CK?$DN?$AA@ 10020678     libvcruntime:undname.obj
 0002:0000067c       ??_C@_02FOEOMHFC@?$CL?$DN?$AA@ 1002067c     libvcruntime:undname.obj
 0002:00000680       ??_C@_02FKMDLLOA@?9?$DN?$AA@ 10020680     libvcruntime:undname.obj
 0002:00000684       ??_C@_02FJEHGPIO@?1?$DN?$AA@ 10020684     libvcruntime:undname.obj
 0002:00000688       ??_C@_02FENAOKFI@?$CF?$DN?$AA@ 10020688     libvcruntime:undname.obj
 0002:0000068c       ??_C@_03IKFCCPFF@?$DO?$DO?$DN?$AA@ 1002068c     libvcruntime:undname.obj
 0002:00000690       ??_C@_03CDNPDDLA@?$DM?$DM?$DN?$AA@ 10020690     libvcruntime:undname.obj
 0002:00000694       ??_C@_02FGJGFEAB@?$CG?$DN?$AA@ 10020694     libvcruntime:undname.obj
 0002:00000698       ??_C@_02DHLNPPGH@?$HM?$DN?$AA@ 10020698     libvcruntime:undname.obj
 0002:0000069c       ??_C@_02MHEGNOJ@?$FO?$DN?$AA@ 1002069c     libvcruntime:undname.obj
 0002:000006a0       ??_C@_09IFPLHPGF@?$GAvftable?8?$AA@ 100206a0     libvcruntime:undname.obj
 0002:000006ac       ??_C@_09BLBHBJP@?$GAvbtable?8?$AA@ 100206ac     libvcruntime:undname.obj
 0002:000006b8       ??_C@_07FEEIOKP@?$GAvcall?8?$AA@ 100206b8     libvcruntime:undname.obj
 0002:000006c0       ??_C@_08LLFFHHDJ@?$GAtypeof?8?$AA@ 100206c0     libvcruntime:undname.obj
 0002:000006cc       ??_C@_0BF@KDPPACIK@?$GAlocal?5static?5guard?8?$AA@ 100206cc     libvcruntime:undname.obj
 0002:000006e4       ??_C@_08OBABFOLI@?$GAstring?8?$AA@ 100206e4     libvcruntime:undname.obj
 0002:000006f0       ??_C@_0BD@JDLKDPAB@?$GAvbase?5destructor?8?$AA@ 100206f0     libvcruntime:undname.obj
 0002:00000704       ??_C@_0BN@DEGPLNFK@?$GAvector?5deleting?5destructor?8?$AA@ 10020704     libvcruntime:undname.obj
 0002:00000724       ??_C@_0BO@OBMKPJIG@?$GAdefault?5constructor?5closure?8?$AA@ 10020724     libvcruntime:undname.obj
 0002:00000744       ??_C@_0BN@IMDCHIKM@?$GAscalar?5deleting?5destructor?8?$AA@ 10020744     libvcruntime:undname.obj
 0002:00000764       ??_C@_0BO@PFGOCPJJ@?$GAvector?5constructor?5iterator?8?$AA@ 10020764     libvcruntime:undname.obj
 0002:00000784       ??_C@_0BN@LFPFMEDL@?$GAvector?5destructor?5iterator?8?$AA@ 10020784     libvcruntime:undname.obj
 0002:000007a4       ??_C@_0CE@IKBNEHA@?$GAvector?5vbase?5constructor?5iterat@ 100207a4     libvcruntime:undname.obj
 0002:000007c8       ??_C@_0BL@NILFHHPC@?$GAvirtual?5displacement?5map?8?$AA@ 100207c8     libvcruntime:undname.obj
 0002:000007e4       ??_C@_0CB@JONCMFFK@?$GAeh?5vector?5constructor?5iterator?8@ 100207e4     libvcruntime:undname.obj
 0002:00000808       ??_C@_0CA@GCEOPDGL@?$GAeh?5vector?5destructor?5iterator?8?$AA@ 10020808     libvcruntime:undname.obj
 0002:00000828       ??_C@_0CH@OOJPLCPH@?$GAeh?5vector?5vbase?5constructor?5ite@ 10020828     libvcruntime:undname.obj
 0002:00000850       ??_C@_0BL@LLKPOHJI@?$GAcopy?5constructor?5closure?8?$AA@ 10020850     libvcruntime:undname.obj
 0002:0000086c       ??_C@_0BA@KBCDOMBN@?$GAudt?5returning?8?$AA@ 1002086c     libvcruntime:undname.obj
 0002:0000087c       ??_C@_03KLGMFNMG@?$GAEH?$AA@ 1002087c     libvcruntime:undname.obj
 0002:00000880       ??_C@_05KHLCHHI@?$GARTTI?$AA@ 10020880     libvcruntime:undname.obj
 0002:00000888       ??_C@_0BA@KKLDJDLB@?$GAlocal?5vftable?8?$AA@ 10020888     libvcruntime:undname.obj
 0002:00000898       ??_C@_0CE@IIHCMGGL@?$GAlocal?5vftable?5constructor?5closu@ 10020898     libvcruntime:undname.obj
 0002:000008bc       ??_C@_06FHBGPFGH@?5new?$FL?$FN?$AA@ 100208bc     libvcruntime:undname.obj
 0002:000008c4       ??_C@_09LBNFPBCA@?5delete?$FL?$FN?$AA@ 100208c4     libvcruntime:undname.obj
 0002:000008d0       ??_C@_0P@HJKNJFNN@?$GAomni?5callsig?8?$AA@ 100208d0     libvcruntime:undname.obj
 0002:000008e0       ??_C@_0BL@CNOONJFP@?$GAplacement?5delete?5closure?8?$AA@ 100208e0     libvcruntime:undname.obj
 0002:000008fc       ??_C@_0BN@CKNJLHMB@?$GAplacement?5delete?$FL?$FN?5closure?8?$AA@ 100208fc     libvcruntime:undname.obj
 0002:0000091c       ??_C@_0CG@CFDHKGGD@?$GAmanaged?5vector?5constructor?5iter@ 1002091c     libvcruntime:undname.obj
 0002:00000944       ??_C@_0CF@IMGKMJNO@?$GAmanaged?5vector?5destructor?5itera@ 10020944     libvcruntime:undname.obj
 0002:0000096c       ??_C@_0CG@HLDDJMAG@?$GAeh?5vector?5copy?5constructor?5iter@ 1002096c     libvcruntime:undname.obj
 0002:00000994       ??_C@_0CM@FCBBDIGB@?$GAeh?5vector?5vbase?5copy?5constructo@ 10020994     libvcruntime:undname.obj
 0002:000009c0       ??_C@_0BL@CLIPGLGB@?$GAdynamic?5initializer?5for?5?8?$AA@ 100209c0     libvcruntime:undname.obj
 0002:000009dc       ??_C@_0CB@PDBIFEP@?$GAdynamic?5atexit?5destructor?5for?5?8@ 100209dc     libvcruntime:undname.obj
 0002:00000a00       ??_C@_0CD@CGAJBKEJ@?$GAvector?5copy?5constructor?5iterato@ 10020a00     libvcruntime:undname.obj
 0002:00000a24       ??_C@_0CJ@GJELGAMM@?$GAvector?5vbase?5copy?5constructor?5i@ 10020a24     libvcruntime:undname.obj
 0002:00000a50       ??_C@_0CL@FGIJHLCE@?$GAmanaged?5vector?5copy?5constructor@ 10020a50     libvcruntime:undname.obj
 0002:00000a7c       ??_C@_0BM@PMGGMLDN@?$GAlocal?5static?5thread?5guard?8?$AA@ 10020a7c     libvcruntime:undname.obj
 0002:00000a98       ??_C@_0N@BDNMDMOL@operator?5?$CC?$CC?5?$AA@ 10020a98     libvcruntime:undname.obj
 0002:00000aa8       ??_C@_0BC@DAFEJGAK@?5Type?5Descriptor?8?$AA@ 10020aa8     libvcruntime:undname.obj
 0002:00000abc       ??_C@_0BM@LDKODKLH@?5Base?5Class?5Descriptor?5at?5?$CI?$AA@ 10020abc     libvcruntime:undname.obj
 0002:00000ad8       ??_C@_0BD@LGICGFMM@?5Base?5Class?5Array?8?$AA@ 10020ad8     libvcruntime:undname.obj
 0002:00000aec       ??_C@_0BN@MECKDCOJ@?5Class?5Hierarchy?5Descriptor?8?$AA@ 10020aec     libvcruntime:undname.obj
 0002:00000b0c       ??_C@_0BK@CFCOFLF@?5Complete?5Object?5Locator?8?$AA@ 10020b0c     libvcruntime:undname.obj
 0002:00000b28       _standard_lookup_table     10020b28     libucrt:output.obj
 0002:00000b84       ??_C@_06OJHGLDPL@?$CInull?$CJ?$AA@ 10020b84     libucrt:output.obj
 0002:00000b8c       ??_C@_1O@CEDCILHN@?$AA?$CI?$AAn?$AAu?$AAl?$AAl?$AA?$CJ?$AA?$AA@ 10020b8c     libucrt:output.obj
 0002:00000d08       ??_C@_1EK@MBDPDCGA@?$AAM?$AAi?$AAc?$AAr?$AAo?$AAs?$AAo?$AAf?$AAt?$AA?5?$AAV?$AAi?$AAs?$AAu?$AAa?$AAl?$AA?5?$AAC?$AA?$CL?$AA?$CL?$AA?5?$AAR?$AAu?$AAn?$AAt?$AAi?$AAm?$AAe?$AA?5?$AAL?$AAi?$AAb@ 10020d08     libucrt:assert.obj
 0002:00000d58       ??_C@_1FE@LHBLIKM@?$AAA?$AAs?$AAs?$AAe?$AAr?$AAt?$AAi?$AAo?$AAn?$AA?5?$AAf?$AAa?$AAi?$AAl?$AAe?$AAd?$AA?3?$AA?5?$AA?$CF?$AAT?$AAs?$AA?0?$AA?5?$AAf?$AAi?$AAl?$AAe?$AA?5?$AA?$CF?$AAT?$AAs?$AA?0@ 10020d58     libucrt:assert.obj
 0002:00000dac       ??_C@_1CE@OJBNHDMO@?$AAA?$AAs?$AAs?$AAe?$AAr?$AAt?$AAi?$AAo?$AAn?$AA?5?$AAf?$AAa?$AAi?$AAl?$AAe?$AAd?$AA?$CB?$AA?$AA@ 10020dac     libucrt:assert.obj
 0002:00000dd0       ??_C@_1BE@PHKBBGE@?$AAP?$AAr?$AAo?$AAg?$AAr?$AAa?$AAm?$AA?3?$AA?5?$AA?$AA@ 10020dd0     libucrt:assert.obj
 0002:00000de4       ??_C@_1O@HEMHKNDC@?$AAF?$AAi?$AAl?$AAe?$AA?3?$AA?5?$AA?$AA@ 10020de4     libucrt:assert.obj
 0002:00000df4       ??_C@_1O@KCAFKHJE@?$AAL?$AAi?$AAn?$AAe?$AA?3?$AA?5?$AA?$AA@ 10020df4     libucrt:assert.obj
 0002:00000e04       ??_C@_1BK@PEDCIPMA@?$AAE?$AAx?$AAp?$AAr?$AAe?$AAs?$AAs?$AAi?$AAo?$AAn?$AA?3?$AA?5?$AA?$AA@ 10020e04     libucrt:assert.obj
 0002:00000e20       ??_C@_1OA@EGMLFBHJ@?$AAF?$AAo?$AAr?$AA?5?$AAi?$AAn?$AAf?$AAo?$AAr?$AAm?$AAa?$AAt?$AAi?$AAo?$AAn?$AA?5?$AAo?$AAn?$AA?5?$AAh?$AAo?$AAw?$AA?5?$AAy?$AAo?$AAu?$AAr?$AA?5?$AAp?$AAr?$AAo?$AAg@ 10020e20     libucrt:assert.obj
 0002:00000f00       ??_C@_1HK@POCJMFGK@?$AA?$CI?$AAP?$AAr?$AAe?$AAs?$AAs?$AA?5?$AAR?$AAe?$AAt?$AAr?$AAy?$AA?5?$AAt?$AAo?$AA?5?$AAd?$AAe?$AAb?$AAu?$AAg?$AA?5?$AAt?$AAh?$AAe?$AA?5?$AAa?$AAp?$AAp?$AAl?$AAi?$AAc@ 10020f00     libucrt:assert.obj
 0002:00000f7c       ??_C@_17LGKOMLJ@?$AA?4?$AA?4?$AA?4?$AA?$AA@ 10020f7c     libucrt:assert.obj
 0002:00000f84       ??_C@_13LBAGMAIH@?$AA?6?$AA?$AA@ 10020f84     libucrt:assert.obj
 0002:00000f88       ??_C@_15IABLJNFO@?$AA?6?$AA?6?$AA?$AA@ 10020f88     libucrt:assert.obj
 0002:00000f90       ??_C@_1CO@EAEJAADC@?$AA?$DM?$AAp?$AAr?$AAo?$AAg?$AAr?$AAa?$AAm?$AA?5?$AAn?$AAa?$AAm?$AAe?$AA?5?$AAu?$AAn?$AAk?$AAn?$AAo?$AAw?$AAn?$AA?$DO?$AA?$AA@ 10020f90     libucrt:assert.obj
 0002:00000fc0       ??_C@_0EA@FCLIIPNN@Visual?5C?$CL?$CL?5CRT?3?5Not?5enough?5memor@ 10020fc0     libucrt:strerror.obj
 0002:00001000       ___acrt_exception_action_table 10021000     libucrt:exception_filter.obj
 0002:00001090       ___acrt_signal_action_table_count 10021090     libucrt:exception_filter.obj
 0002:00001094       ___acrt_signal_action_first_fpe_index 10021094     libucrt:exception_filter.obj
 0002:00001098       ___acrt_signal_action_fpe_count 10021098     libucrt:exception_filter.obj
 0002:0000109c       ??_C@_1BI@BGOHAHKC@?$AAm?$AAs?$AAc?$AAo?$AAr?$AAe?$AAe?$AA?4?$AAd?$AAl?$AAl?$AA?$AA@ 1002109c     libucrt:exit.obj
 0002:000010b4       ??_C@_0P@MIGLKIOC@CorExitProcess?$AA@ 100210b4     libucrt:exit.obj
 0002:00001140       ?ccs@?BL@???$__acrt_stdio_parse_mode@D@@YA?AU__acrt_stdio_stream_mode@@QBD@Z@4QBDB 10021140     libucrt:openfile.obj
 0002:00001144       ?utf8_encoding@?BL@???$__acrt_stdio_parse_mode@D@@YA?AU__acrt_stdio_stream_mode@@QBD@Z@4QBDB 10021144     libucrt:openfile.obj
 0002:0000114c       ?utf16_encoding@?BL@???$__acrt_stdio_parse_mode@D@@YA?AU__acrt_stdio_stream_mode@@QBD@Z@4QBDB 1002114c     libucrt:openfile.obj
 0002:00001154       ?unicode_encoding@?BL@???$__acrt_stdio_parse_mode@D@@YA?AU__acrt_stdio_stream_mode@@QBD@Z@4QBDB 10021154     libucrt:openfile.obj
 0002:000011b0       ??_C@_1EG@CNNIPFIM@?$AAa?$AAp?$AAi?$AA?9?$AAm?$AAs?$AA?9?$AAw?$AAi?$AAn?$AA?9?$AAa?$AAp?$AAp?$AAm?$AAo?$AAd?$AAe?$AAl?$AA?9?$AAr?$AAu?$AAn?$AAt?$AAi?$AAm?$AAe?$AA?9?$AAl?$AA1?$AA?9?$AA1@ 100211b0     libucrt:winapi_thunks.obj
 0002:000011f8       ??_C@_1EA@JGEFHKEI@?$AAa?$AAp?$AAi?$AA?9?$AAm?$AAs?$AA?9?$AAw?$AAi?$AAn?$AA?9?$AAc?$AAo?$AAr?$AAe?$AA?9?$AAd?$AAa?$AAt?$AAe?$AAt?$AAi?$AAm?$AAe?$AA?9?$AAl?$AA1?$AA?9?$AA1?$AA?9?$AA1?$AA?$AA@ 100211f8     libucrt:winapi_thunks.obj
 0002:00001238       ??_C@_1DI@GCIAAENM@?$AAa?$AAp?$AAi?$AA?9?$AAm?$AAs?$AA?9?$AAw?$AAi?$AAn?$AA?9?$AAc?$AAo?$AAr?$AAe?$AA?9?$AAf?$AAi?$AAl?$AAe?$AA?9?$AAl?$AA2?$AA?9?$AA1?$AA?9?$AA1?$AA?$AA@ 10021238     libucrt:winapi_thunks.obj
 0002:00001270       ??_C@_1EI@MPIAOHOC@?$AAa?$AAp?$AAi?$AA?9?$AAm?$AAs?$AA?9?$AAw?$AAi?$AAn?$AA?9?$AAc?$AAo?$AAr?$AAe?$AA?9?$AAl?$AAo?$AAc?$AAa?$AAl?$AAi?$AAz?$AAa?$AAt?$AAi?$AAo?$AAn?$AA?9?$AAl?$AA1?$AA?9@ 10021270     libucrt:winapi_thunks.obj
 0002:000012b8       ??_C@_1FK@FPHCKFIE@?$AAa?$AAp?$AAi?$AA?9?$AAm?$AAs?$AA?9?$AAw?$AAi?$AAn?$AA?9?$AAc?$AAo?$AAr?$AAe?$AA?9?$AAl?$AAo?$AAc?$AAa?$AAl?$AAi?$AAz?$AAa?$AAt?$AAi?$AAo?$AAn?$AA?9?$AAo?$AAb?$AAs@ 100212b8     libucrt:winapi_thunks.obj
 0002:00001318       ??_C@_1EM@DILCGIIO@?$AAa?$AAp?$AAi?$AA?9?$AAm?$AAs?$AA?9?$AAw?$AAi?$AAn?$AA?9?$AAc?$AAo?$AAr?$AAe?$AA?9?$AAp?$AAr?$AAo?$AAc?$AAe?$AAs?$AAs?$AAt?$AAh?$AAr?$AAe?$AAa?$AAd?$AAs?$AA?9?$AAl@ 10021318     libucrt:winapi_thunks.obj
 0002:00001364       ??_C@_1DM@LNCGDDPN@?$AAa?$AAp?$AAi?$AA?9?$AAm?$AAs?$AA?9?$AAw?$AAi?$AAn?$AA?9?$AAc?$AAo?$AAr?$AAe?$AA?9?$AAs?$AAt?$AAr?$AAi?$AAn?$AAg?$AA?9?$AAl?$AA1?$AA?9?$AA1?$AA?9?$AA0?$AA?$AA@ 10021364     libucrt:winapi_thunks.obj
 0002:000013a0       ??_C@_1DO@FPAPJEMD@?$AAa?$AAp?$AAi?$AA?9?$AAm?$AAs?$AA?9?$AAw?$AAi?$AAn?$AA?9?$AAc?$AAo?$AAr?$AAe?$AA?9?$AAs?$AAy?$AAs?$AAi?$AAn?$AAf?$AAo?$AA?9?$AAl?$AA1?$AA?9?$AA2?$AA?9?$AA1?$AA?$AA@ 100213a0     libucrt:winapi_thunks.obj
 0002:000013e0       ??_C@_1DK@NDHNAHIO@?$AAa?$AAp?$AAi?$AA?9?$AAm?$AAs?$AA?9?$AAw?$AAi?$AAn?$AA?9?$AAc?$AAo?$AAr?$AAe?$AA?9?$AAw?$AAi?$AAn?$AAr?$AAt?$AA?9?$AAl?$AA1?$AA?9?$AA1?$AA?9?$AA0?$AA?$AA@ 100213e0     libucrt:winapi_thunks.obj
 0002:0000141c       ??_C@_1DM@KGHDGBCM@?$AAa?$AAp?$AAi?$AA?9?$AAm?$AAs?$AA?9?$AAw?$AAi?$AAn?$AA?9?$AAc?$AAo?$AAr?$AAe?$AA?9?$AAx?$AAs?$AAt?$AAa?$AAt?$AAe?$AA?9?$AAl?$AA2?$AA?9?$AA1?$AA?9?$AA0?$AA?$AA@ 1002141c     libucrt:winapi_thunks.obj
 0002:00001458       ??_C@_1EO@IJIOEFOH@?$AAa?$AAp?$AAi?$AA?9?$AAm?$AAs?$AA?9?$AAw?$AAi?$AAn?$AA?9?$AAr?$AAt?$AAc?$AAo?$AAr?$AAe?$AA?9?$AAn?$AAt?$AAu?$AAs?$AAe?$AAr?$AA?9?$AAw?$AAi?$AAn?$AAd?$AAo?$AAw?$AA?9@ 10021458     libucrt:winapi_thunks.obj
 0002:000014a8       ??_C@_1FG@HHGEKANL@?$AAa?$AAp?$AAi?$AA?9?$AAm?$AAs?$AA?9?$AAw?$AAi?$AAn?$AA?9?$AAs?$AAe?$AAc?$AAu?$AAr?$AAi?$AAt?$AAy?$AA?9?$AAs?$AAy?$AAs?$AAt?$AAe?$AAm?$AAf?$AAu?$AAn?$AAc?$AAt?$AAi@ 100214a8     libucrt:winapi_thunks.obj
 0002:00001500       ??_C@_1FG@NCKKOLKO@?$AAe?$AAx?$AAt?$AA?9?$AAm?$AAs?$AA?9?$AAw?$AAi?$AAn?$AA?9?$AAk?$AAe?$AAr?$AAn?$AAe?$AAl?$AA3?$AA2?$AA?9?$AAp?$AAa?$AAc?$AAk?$AAa?$AAg?$AAe?$AA?9?$AAc?$AAu?$AAr?$AAr@ 10021500     libucrt:winapi_thunks.obj
 0002:00001558       ??_C@_1EG@DBIOJECG@?$AAe?$AAx?$AAt?$AA?9?$AAm?$AAs?$AA?9?$AAw?$AAi?$AAn?$AA?9?$AAn?$AAt?$AAu?$AAs?$AAe?$AAr?$AA?9?$AAd?$AAi?$AAa?$AAl?$AAo?$AAg?$AAb?$AAo?$AAx?$AA?9?$AAl?$AA1?$AA?9?$AA1@ 10021558     libucrt:winapi_thunks.obj
 0002:000015a0       ??_C@_1EO@FIHMJCLF@?$AAe?$AAx?$AAt?$AA?9?$AAm?$AAs?$AA?9?$AAw?$AAi?$AAn?$AA?9?$AAn?$AAt?$AAu?$AAs?$AAe?$AAr?$AA?9?$AAw?$AAi?$AAn?$AAd?$AAo?$AAw?$AAs?$AAt?$AAa?$AAt?$AAi?$AAo?$AAn?$AA?9@ 100215a0     libucrt:winapi_thunks.obj
 0002:000015f0       ??_C@_1O@BCCLBEOE@?$AAu?$AAs?$AAe?$AAr?$AA3?$AA2?$AA?$AA@ 100215f0     libucrt:winapi_thunks.obj
 0002:00001604       ??_C@_0BA@FHFNEAED@AreFileApisANSI?$AA@ 10021604     libucrt:winapi_thunks.obj
 0002:0000163c       ??_C@_0BA@HNOPNCHB@GetActiveWindow?$AA@ 1002163c     libucrt:winapi_thunks.obj
 0002:00001654       ??_C@_0BE@JOGNEJCI@GetCurrentPackageId?$AA@ 10021654     libucrt:winapi_thunks.obj
 0002:00001670       ??_C@_0BD@HHGDFDBJ@GetLastActivePopup?$AA@ 10021670     libucrt:winapi_thunks.obj
 0002:0000168c       ??_C@_0BI@DFKBFLJE@GetProcessWindowStation?$AA@ 1002168c     libucrt:winapi_thunks.obj
 0002:000016ac       ??_C@_0BK@DEKFELLI@GetUserObjectInformationW?$AA@ 100216ac     libucrt:winapi_thunks.obj
 0002:000016d8       ??_C@_0O@KKBNKAPF@LCMapStringEx?$AA@ 100216d8     libucrt:winapi_thunks.obj
 0002:000016f0       ??_C@_0BB@HBDEELFH@LocaleNameToLCID?$AA@ 100216f0     libucrt:winapi_thunks.obj
 0002:0000170c       ??_C@_0M@CHKKJDAI@MessageBoxA?$AA@ 1002170c     libucrt:winapi_thunks.obj
 0002:00001720       ??_C@_0M@DLDCCGNP@MessageBoxW?$AA@ 10021720     libucrt:winapi_thunks.obj
 0002:0000172c       ??_C@_03OEIAHPBN@INF?$AA@  1002172c     libucrt:cvt.obj
 0002:00001730       ??_C@_03OJHLLCGB@inf?$AA@  10021730     libucrt:cvt.obj
 0002:00001734       ??_C@_03LKNCIKJB@NAN?$AA@  10021734     libucrt:cvt.obj
 0002:00001738       ??_C@_03LHCJEHON@nan?$AA@  10021738     libucrt:cvt.obj
 0002:0000173c       ??_C@_09OFJJIMPC@NAN?$CISNAN?$CJ?$AA@ 1002173c     libucrt:cvt.obj
 0002:00001748       ??_C@_09IPFBKMDL@nan?$CIsnan?$CJ?$AA@ 10021748     libucrt:cvt.obj
 0002:00001754       ??_C@_08IKHNHAJ@NAN?$CIIND?$CJ?$AA@ 10021754     libucrt:cvt.obj
 0002:00001760       ??_C@_08OFCDMILK@nan?$CIind?$CJ?$AA@ 10021760     libucrt:cvt.obj
 0002:0000176c       ??_C@_05KLBDPFGC@e?$CL000?$AA@ 1002176c     libucrt:cvt.obj
 0002:00001774       ??_C@_03KOEHGMDN@Sun?$AA@  10021774     libucrt:nlsdata.obj
 0002:00001778       ??_C@_03PDAGKDH@Mon?$AA@   10021778     libucrt:nlsdata.obj
 0002:0000177c       ??_C@_03NAGEINEP@Tue?$AA@  1002177c     libucrt:nlsdata.obj
 0002:00001780       ??_C@_03MHOMLAJA@Wed?$AA@  10021780     libucrt:nlsdata.obj
 0002:00001784       ??_C@_03IOFIKPDN@Thu?$AA@  10021784     libucrt:nlsdata.obj
 0002:00001788       ??_C@_03IDIOELNC@Fri?$AA@  10021788     libucrt:nlsdata.obj
 0002:0000178c       ??_C@_03FEFJNEK@Sat?$AA@   1002178c     libucrt:nlsdata.obj
 0002:00001790       ??_C@_06OOPIFAJ@Sunday?$AA@ 10021790     libucrt:nlsdata.obj
 0002:00001798       ??_C@_06JLEDEDGH@Monday?$AA@ 10021798     libucrt:nlsdata.obj
 0002:000017a0       ??_C@_07BAAGCFCM@Tuesday?$AA@ 100217a0     libucrt:nlsdata.obj
 0002:000017a8       ??_C@_09DLIGFAKA@Wednesday?$AA@ 100217a8     libucrt:nlsdata.obj
 0002:000017b4       ??_C@_08HACCIKIA@Thursday?$AA@ 100217b4     libucrt:nlsdata.obj
 0002:000017c0       ??_C@_06JECMNKMI@Friday?$AA@ 100217c0     libucrt:nlsdata.obj
 0002:000017c8       ??_C@_08INBOOONO@Saturday?$AA@ 100217c8     libucrt:nlsdata.obj
 0002:000017d4       ??_C@_03JIHJHPIE@Jan?$AA@  100217d4     libucrt:nlsdata.obj
 0002:000017d8       ??_C@_03HJBDCHOM@Feb?$AA@  100217d8     libucrt:nlsdata.obj
 0002:000017dc       ??_C@_03ODNJBKGA@Mar?$AA@  100217dc     libucrt:nlsdata.obj
 0002:000017e0       ??_C@_03LEOLGMJP@Apr?$AA@  100217e0     libucrt:nlsdata.obj
 0002:000017e4       ??_C@_03CNMDKL@May?$AA@    100217e4     libucrt:nlsdata.obj
 0002:000017e8       ??_C@_03IDFGHECI@Jun?$AA@  100217e8     libucrt:nlsdata.obj
 0002:000017ec       ??_C@_03LBGABGKK@Jul?$AA@  100217ec     libucrt:nlsdata.obj
 0002:000017f0       ??_C@_03IFJFEIGA@Aug?$AA@  100217f0     libucrt:nlsdata.obj
 0002:000017f4       ??_C@_03GGCAPAJC@Sep?$AA@  100217f4     libucrt:nlsdata.obj
 0002:000017f8       ??_C@_03BMAOKBAD@Oct?$AA@  100217f8     libucrt:nlsdata.obj
 0002:000017fc       ??_C@_03JPJOFNIA@Nov?$AA@  100217fc     libucrt:nlsdata.obj
 0002:00001800       ??_C@_03MKABNOCG@Dec?$AA@  10021800     libucrt:nlsdata.obj
 0002:00001804       ??_C@_07CGJPFGJA@January?$AA@ 10021804     libucrt:nlsdata.obj
 0002:0000180c       ??_C@_08GNJGEPFN@February?$AA@ 1002180c     libucrt:nlsdata.obj
 0002:00001818       ??_C@_05HPCKOFNC@March?$AA@ 10021818     libucrt:nlsdata.obj
 0002:00001820       ??_C@_05DMJDNLEJ@April?$AA@ 10021820     libucrt:nlsdata.obj
 0002:00001828       ??_C@_04CNLMGBGM@June?$AA@ 10021828     libucrt:nlsdata.obj
 0002:00001830       ??_C@_04MIEPOIFP@July?$AA@ 10021830     libucrt:nlsdata.obj
 0002:00001838       ??_C@_06LBBHFDDG@August?$AA@ 10021838     libucrt:nlsdata.obj
 0002:00001840       ??_C@_09BHHEALKD@September?$AA@ 10021840     libucrt:nlsdata.obj
 0002:0000184c       ??_C@_07JJNFCEND@October?$AA@ 1002184c     libucrt:nlsdata.obj
 0002:00001854       ??_C@_08HCHEGEOA@November?$AA@ 10021854     libucrt:nlsdata.obj
 0002:00001860       ??_C@_08EDHMEBNP@December?$AA@ 10021860     libucrt:nlsdata.obj
 0002:0000186c       ??_C@_02DEDBPAFC@AM?$AA@   1002186c     libucrt:nlsdata.obj
 0002:00001870       ??_C@_02CJNFDJBF@PM?$AA@   10021870     libucrt:nlsdata.obj
 0002:00001874       ??_C@_08BPBNCDIB@MM?1dd?1yy?$AA@ 10021874     libucrt:nlsdata.obj
 0002:00001880       ??_C@_0BE@CKGJFCPC@dddd?0?5MMMM?5dd?0?5yyyy?$AA@ 10021880     libucrt:nlsdata.obj
 0002:00001894       ??_C@_08JCCMCCIL@HH?3mm?3ss?$AA@ 10021894     libucrt:nlsdata.obj
 0002:000018a0       ??_C@_17MBGCMIPB@?$AAS?$AAu?$AAn?$AA?$AA@ 100218a0     libucrt:nlsdata.obj
 0002:000018a8       ??_C@_17KBOMKBF@?$AAM?$AAo?$AAn?$AA?$AA@ 100218a8     libucrt:nlsdata.obj
 0002:000018b0       ??_C@_17BMKGEGOJ@?$AAT?$AAu?$AAe?$AA?$AA@ 100218b0     libucrt:nlsdata.obj
 0002:000018b8       ??_C@_17CJEDCEPE@?$AAW?$AAe?$AAd?$AA?$AA@ 100218b8     libucrt:nlsdata.obj
 0002:000018c0       ??_C@_17PDPHAADD@?$AAT?$AAh?$AAu?$AA?$AA@ 100218c0     libucrt:nlsdata.obj
 0002:000018c8       ??_C@_17HFOLPPLP@?$AAF?$AAr?$AAi?$AA?$AA@ 100218c8     libucrt:nlsdata.obj
 0002:000018d0       ??_C@_17GGIBDPIH@?$AAS?$AAa?$AAt?$AA?$AA@ 100218d0     libucrt:nlsdata.obj
 0002:000018d8       ??_C@_1O@IHNHDHPB@?$AAS?$AAu?$AAn?$AAd?$AAa?$AAy?$AA?$AA@ 100218d8     libucrt:nlsdata.obj
 0002:000018e8       ??_C@_1O@MMNBFLIA@?$AAM?$AAo?$AAn?$AAd?$AAa?$AAy?$AA?$AA@ 100218e8     libucrt:nlsdata.obj
 0002:000018f8       ??_C@_1BA@ENFBFFEK@?$AAT?$AAu?$AAe?$AAs?$AAd?$AAa?$AAy?$AA?$AA@ 100218f8     libucrt:nlsdata.obj
 0002:00001908       ??_C@_1BE@EBOGMDOH@?$AAW?$AAe?$AAd?$AAn?$AAe?$AAs?$AAd?$AAa?$AAy?$AA?$AA@ 10021908     libucrt:nlsdata.obj
 0002:0000191c       ??_C@_1BC@HHMNLIHE@?$AAT?$AAh?$AAu?$AAr?$AAs?$AAd?$AAa?$AAy?$AA?$AA@ 1002191c     libucrt:nlsdata.obj
 0002:00001930       ??_C@_1O@PDICJHAG@?$AAF?$AAr?$AAi?$AAd?$AAa?$AAy?$AA?$AA@ 10021930     libucrt:nlsdata.obj
 0002:00001940       ??_C@_1BC@ENMNNPAJ@?$AAS?$AAa?$AAt?$AAu?$AAr?$AAd?$AAa?$AAy?$AA?$AA@ 10021940     libucrt:nlsdata.obj
 0002:00001954       ??_C@_17DKNBKCHM@?$AAJ?$AAa?$AAn?$AA?$AA@ 10021954     libucrt:nlsdata.obj
 0002:0000195c       ??_C@_17LMDJEKJN@?$AAF?$AAe?$AAb?$AA?$AA@ 1002195c     libucrt:nlsdata.obj
 0002:00001964       ??_C@_17CKNLEDEC@?$AAM?$AAa?$AAr?$AA?$AA@ 10021964     libucrt:nlsdata.obj
 0002:0000196c       ??_C@_17LFPOIHDD@?$AAA?$AAp?$AAr?$AA?$AA@ 1002196c     libucrt:nlsdata.obj
 0002:00001974       ??_C@_17PNNKMEED@?$AAM?$AAa?$AAy?$AA?$AA@ 10021974     libucrt:nlsdata.obj
 0002:0000197c       ??_C@_17KCJGOCPB@?$AAJ?$AAu?$AAn?$AA?$AA@ 1002197c     libucrt:nlsdata.obj
 0002:00001984       ??_C@_17IJPCKHK@?$AAJ?$AAu?$AAl?$AA?$AA@ 10021984     libucrt:nlsdata.obj
 0002:0000198c       ??_C@_17ICPELBCN@?$AAA?$AAu?$AAg?$AA?$AA@ 1002198c     libucrt:nlsdata.obj
 0002:00001994       ??_C@_17HCHCOKMG@?$AAS?$AAe?$AAp?$AA?$AA@ 10021994     libucrt:nlsdata.obj
 0002:0000199c       ??_C@_17FNLKOI@?$AAO?$AAc?$AAt?$AA?$AA@ 1002199c     libucrt:nlsdata.obj
 0002:000019a4       ??_C@_17BBDMLCIG@?$AAN?$AAo?$AAv?$AA?$AA@ 100219a4     libucrt:nlsdata.obj
 0002:000019ac       ??_C@_17EGKACKIF@?$AAD?$AAe?$AAc?$AA?$AA@ 100219ac     libucrt:nlsdata.obj
 0002:000019b4       ??_C@_1BA@EFMEIEBA@?$AAJ?$AAa?$AAn?$AAu?$AAa?$AAr?$AAy?$AA?$AA@ 100219b4     libucrt:nlsdata.obj
 0002:000019c4       ??_C@_1BC@JGDDFFAM@?$AAF?$AAe?$AAb?$AAr?$AAu?$AAa?$AAr?$AAy?$AA?$AA@ 100219c4     libucrt:nlsdata.obj
 0002:000019d8       ??_C@_1M@IKEENEDF@?$AAM?$AAa?$AAr?$AAc?$AAh?$AA?$AA@ 100219d8     libucrt:nlsdata.obj
 0002:000019e4       ??_C@_1M@GJNLMHFD@?$AAA?$AAp?$AAr?$AAi?$AAl?$AA?$AA@ 100219e4     libucrt:nlsdata.obj
 0002:000019f0       ??_C@_19EPFLPGAP@?$AAJ?$AAu?$AAn?$AAe?$AA?$AA@ 100219f0     libucrt:nlsdata.obj
 0002:000019fc       ??_C@_19BIFMLPCD@?$AAJ?$AAu?$AAl?$AAy?$AA?$AA@ 100219fc     libucrt:nlsdata.obj
 0002:00001a08       ??_C@_1O@PAHLKOAC@?$AAA?$AAu?$AAg?$AAu?$AAs?$AAt?$AA?$AA@ 10021a08     libucrt:nlsdata.obj
 0002:00001a18       ??_C@_1BE@DKAAMBJL@?$AAS?$AAe?$AAp?$AAt?$AAe?$AAm?$AAb?$AAe?$AAr?$AA?$AA@ 10021a18     libucrt:nlsdata.obj
 0002:00001a2c       ??_C@_1BA@EPANDLNG@?$AAO?$AAc?$AAt?$AAo?$AAb?$AAe?$AAr?$AA?$AA@ 10021a2c     libucrt:nlsdata.obj
 0002:00001a3c       ??_C@_1BC@BGLIFPF@?$AAN?$AAo?$AAv?$AAe?$AAm?$AAb?$AAe?$AAr?$AA?$AA@ 10021a3c     libucrt:nlsdata.obj
 0002:00001a50       ??_C@_1BC@FEMKIFH@?$AAD?$AAe?$AAc?$AAe?$AAm?$AAb?$AAe?$AAr?$AA?$AA@ 10021a50     libucrt:nlsdata.obj
 0002:00001a64       ??_C@_15ODEHAHHF@?$AAA?$AAM?$AA?$AA@ 10021a64     libucrt:nlsdata.obj
 0002:00001a6c       ??_C@_15CLMNNGEL@?$AAP?$AAM?$AA?$AA@ 10021a6c     libucrt:nlsdata.obj
 0002:00001a74       ??_C@_1BC@IEBCMHCM@?$AAM?$AAM?$AA?1?$AAd?$AAd?$AA?1?$AAy?$AAy?$AA?$AA@ 10021a74     libucrt:nlsdata.obj
 0002:00001a88       ??_C@_1CI@KNAKOEBC@?$AAd?$AAd?$AAd?$AAd?$AA?0?$AA?5?$AAM?$AAM?$AAM?$AAM?$AA?5?$AAd?$AAd?$AA?0?$AA?5?$AAy?$AAy?$AAy?$AAy?$AA?$AA@ 10021a88     libucrt:nlsdata.obj
 0002:00001ab0       ??_C@_1BC@GDGBMEMK@?$AAH?$AAH?$AA?3?$AAm?$AAm?$AA?3?$AAs?$AAs?$AA?$AA@ 10021ab0     libucrt:nlsdata.obj
 0002:00001ac4       ??_C@_1M@BMHNFIME@?$AAe?$AAn?$AA?9?$AAU?$AAS?$AA?$AA@ 10021ac4     libucrt:nlsdata.obj
 0002:00001ad0       ___lc_time_c               10021ad0     libucrt:nlsdata.obj
 0002:00001c38       __sys_errlist              10021c38     libucrt:syserr.obj
 0002:00001ce8       ??_C@_08INEPGKHH@No?5error?$AA@ 10021ce8     libucrt:syserr.obj
 0002:00001cf4       ??_C@_0BI@BJFCGOHL@Operation?5not?5permitted?$AA@ 10021cf4     libucrt:syserr.obj
 0002:00001d0c       ??_C@_0BK@FMDHKPNF@No?5such?5file?5or?5directory?$AA@ 10021d0c     libucrt:syserr.obj
 0002:00001d28       ??_C@_0BA@FKIAIBGA@No?5such?5process?$AA@ 10021d28     libucrt:syserr.obj
 0002:00001d38       ??_C@_0BK@FJBOAFDK@Interrupted?5function?5call?$AA@ 10021d38     libucrt:syserr.obj
 0002:00001d54       ??_C@_0BD@KKNFOBBD@Input?1output?5error?$AA@ 10021d54     libucrt:syserr.obj
 0002:00001d68       ??_C@_0BK@DPKMCKJ@No?5such?5device?5or?5address?$AA@ 10021d68     libucrt:syserr.obj
 0002:00001d84       ??_C@_0BC@MFFGCDFL@Arg?5list?5too?5long?$AA@ 10021d84     libucrt:syserr.obj
 0002:00001d98       ??_C@_0BC@HKPNECK@Exec?5format?5error?$AA@ 10021d98     libucrt:syserr.obj
 0002:00001dac       ??_C@_0BE@NFGDDCEF@Bad?5file?5descriptor?$AA@ 10021dac     libucrt:syserr.obj
 0002:00001dc0       ??_C@_0BD@LOHELEP@No?5child?5processes?$AA@ 10021dc0     libucrt:syserr.obj
 0002:00001dd4       ??_C@_0CB@EPFKGNAK@Resource?5temporarily?5unavailable@ 10021dd4     libucrt:syserr.obj
 0002:00001df8       ??_C@_0BB@IMDKMPFB@Not?5enough?5space?$AA@ 10021df8     libucrt:syserr.obj
 0002:00001e0c       ??_C@_0BC@HFNFNKAI@Permission?5denied?$AA@ 10021e0c     libucrt:syserr.obj
 0002:00001e20       ??_C@_0M@LOEHLCJD@Bad?5address?$AA@ 10021e20     libucrt:syserr.obj
 0002:00001e2c       ??_C@_0O@NIPGCINC@Unknown?5error?$AA@ 10021e2c     libucrt:syserr.obj
 0002:00001e3c       ??_C@_0BA@BIBLIOEK@Resource?5device?$AA@ 10021e3c     libucrt:syserr.obj
 0002:00001e4c       ??_C@_0M@NAAJNNGH@File?5exists?$AA@ 10021e4c     libucrt:syserr.obj
 0002:00001e58       ??_C@_0O@OAMDNOCP@Improper?5link?$AA@ 10021e58     libucrt:syserr.obj
 0002:00001e68       ??_C@_0P@NLEIANHE@No?5such?5device?$AA@ 10021e68     libucrt:syserr.obj
 0002:00001e78       ??_C@_0BA@CJBACOOL@Not?5a?5directory?$AA@ 10021e78     libucrt:syserr.obj
 0002:00001e88       ??_C@_0P@NDHGCGKE@Is?5a?5directory?$AA@ 10021e88     libucrt:syserr.obj
 0002:00001e98       ??_C@_0BB@HMGGCEBG@Invalid?5argument?$AA@ 10021e98     libucrt:syserr.obj
 0002:00001eac       ??_C@_0BO@IIFBODJE@Too?5many?5open?5files?5in?5system?$AA@ 10021eac     libucrt:syserr.obj
 0002:00001ecc       ??_C@_0BE@INBJMKGG@Too?5many?5open?5files?$AA@ 10021ecc     libucrt:syserr.obj
 0002:00001ee0       ??_C@_0CE@ONOKNLPF@Inappropriate?5I?1O?5control?5operat@ 10021ee0     libucrt:syserr.obj
 0002:00001f04       ??_C@_0P@LFMMIPAE@File?5too?5large?$AA@ 10021f04     libucrt:syserr.obj
 0002:00001f14       ??_C@_0BI@FEALHKLD@No?5space?5left?5on?5device?$AA@ 10021f14     libucrt:syserr.obj
 0002:00001f2c       ??_C@_0N@FEHLOILP@Invalid?5seek?$AA@ 10021f2c     libucrt:syserr.obj
 0002:00001f3c       ??_C@_0BG@DDBFNKBH@Read?9only?5file?5system?$AA@ 10021f3c     libucrt:syserr.obj
 0002:00001f54       ??_C@_0P@PKCJJLLM@Too?5many?5links?$AA@ 10021f54     libucrt:syserr.obj
 0002:00001f64       ??_C@_0M@LHEPIIOM@Broken?5pipe?$AA@ 10021f64     libucrt:syserr.obj
 0002:00001f70       ??_C@_0N@MMJPGLJK@Domain?5error?$AA@ 10021f70     libucrt:syserr.obj
 0002:00001f80       ??_C@_0BB@FCBJFCAJ@Result?5too?5large?$AA@ 10021f80     libucrt:syserr.obj
 0002:00001f94       ??_C@_0BK@JAEBMJJM@Resource?5deadlock?5avoided?$AA@ 10021f94     libucrt:syserr.obj
 0002:00001fb0       ??_C@_0BC@BEDIHIDK@Filename?5too?5long?$AA@ 10021fb0     libucrt:syserr.obj
 0002:00001fc4       ??_C@_0BD@CLHBCGPB@No?5locks?5available?$AA@ 10021fc4     libucrt:syserr.obj
 0002:00001fd8       ??_C@_0BJ@IHEHINLI@Function?5not?5implemented?$AA@ 10021fd8     libucrt:syserr.obj
 0002:00001ff4       ??_C@_0BE@ICMCHPHH@Directory?5not?5empty?$AA@ 10021ff4     libucrt:syserr.obj
 0002:00002008       ??_C@_0BG@KLEAJEFJ@Illegal?5byte?5sequence?$AA@ 10022008     libucrt:syserr.obj
 0002:00002020       __sys_nerr                 10022020     libucrt:syserr.obj
 0002:00002034       ??_C@_1M@HPNHIDJI@?$AAj?$AAa?$AA?9?$AAJ?$AAP?$AA?$AA@ 10022034     libucrt:mbctype.obj
 0002:00002040       ??_C@_1M@BIBDDEMK@?$AAz?$AAh?$AA?9?$AAC?$AAN?$AA?$AA@ 10022040     libucrt:mbctype.obj
 0002:0000204c       ??_C@_1M@JLOOOEGK@?$AAk?$AAo?$AA?9?$AAK?$AAR?$AA?$AA@ 1002204c     libucrt:mbctype.obj
 0002:00002058       ??_C@_1M@CLNBBOPM@?$AAz?$AAh?$AA?9?$AAT?$AAW?$AA?$AA@ 10022058     libucrt:mbctype.obj
 0002:00002068       __wctype                   10022068     libucrt:ctype.obj
 0002:00002270       ___newctype                10022270     libucrt:ctype.obj
 0002:00002570       ___newclmap                10022570     libucrt:ctype.obj
 0002:000026f0       ___newcumap                100226f0     libucrt:ctype.obj
 0002:00002f90       ??_C@_15EMKDOKLE@?$AAa?$AAr?$AA?$AA@ 10022f90     libucrt:lcidtoname_downlevel.obj
 0002:00002f98       ??_C@_15KNPADPLH@?$AAb?$AAg?$AA?$AA@ 10022f98     libucrt:lcidtoname_downlevel.obj
 0002:00002fa0       ??_C@_15EDMHLDMO@?$AAc?$AAa?$AA?$AA@ 10022fa0     libucrt:lcidtoname_downlevel.obj
 0002:00002fa8       ??_C@_1O@BPEAJADD@?$AAz?$AAh?$AA?9?$AAC?$AAH?$AAS?$AA?$AA@ 10022fa8     libucrt:lcidtoname_downlevel.obj
 0002:00002fb8       ??_C@_15LJNHCMNK@?$AAc?$AAs?$AA?$AA@ 10022fb8     libucrt:lcidtoname_downlevel.obj
 0002:00002fc0       ??_C@_15FOMCIDHG@?$AAd?$AAa?$AA?$AA@ 10022fc0     libucrt:lcidtoname_downlevel.obj
 0002:00002fc8       ??_C@_15NBKABECB@?$AAd?$AAe?$AA?$AA@ 10022fc8     libucrt:lcidtoname_downlevel.obj
 0002:00002fd0       ??_C@_15GHPEIIAO@?$AAe?$AAl?$AA?$AA@ 10022fd0     libucrt:lcidtoname_downlevel.obj
 0002:00002fd8       ??_C@_15MNPNEAIF@?$AAe?$AAn?$AA?$AA@ 10022fd8     libucrt:lcidtoname_downlevel.obj
 0002:00002fe0       ??_C@_15GPIOMPMH@?$AAe?$AAs?$AA?$AA@ 10022fe0     libucrt:lcidtoname_downlevel.obj
 0002:00002fe8       ??_C@_15NGLOAKJC@?$AAf?$AAi?$AA?$AA@ 10022fe8     libucrt:lcidtoname_downlevel.obj
 0002:00002ff0       ??_C@_15FBKGNKAM@?$AAf?$AAr?$AA?$AA@ 10022ff0     libucrt:lcidtoname_downlevel.obj
 0002:00002ff8       ??_C@_15KGGCNEFK@?$AAh?$AAe?$AA?$AA@ 10022ff8     libucrt:lcidtoname_downlevel.obj
 0002:00003000       ??_C@_15PGHLIDMF@?$AAh?$AAu?$AA?$AA@ 10023000     libucrt:lcidtoname_downlevel.obj
 0002:00003008       ??_C@_15BIEMAPLM@?$AAi?$AAs?$AA?$AA@ 10023008     libucrt:lcidtoname_downlevel.obj
 0002:00003010       ??_C@_15IFJLDHAF@?$AAi?$AAt?$AA?$AA@ 10023010     libucrt:lcidtoname_downlevel.obj
 0002:00003018       ??_C@_15GEMIOCAG@?$AAj?$AAa?$AA?$AA@ 10023018     libucrt:lcidtoname_downlevel.obj
 0002:00003020       ??_C@_15EPELEGJA@?$AAk?$AAo?$AA?$AA@ 10023020     libucrt:lcidtoname_downlevel.obj
 0002:00003028       ??_C@_15NDDHIMN@?$AAn?$AAl?$AA?$AA@ 10023028     libucrt:lcidtoname_downlevel.obj
 0002:00003030       ??_C@_15BPIGNHCD@?$AAn?$AAo?$AA?$AA@ 10023030     libucrt:lcidtoname_downlevel.obj
 0002:00003038       ??_C@_15DEOPBLCG@?$AAp?$AAl?$AA?$AA@ 10023038     libucrt:lcidtoname_downlevel.obj
 0002:00003040       ??_C@_15KBECGEFG@?$AAp?$AAt?$AA?$AA@ 10023040     libucrt:lcidtoname_downlevel.obj
 0002:00003048       ??_C@_15GLJCBFMD@?$AAr?$AAo?$AA?$AA@ 10023048     libucrt:lcidtoname_downlevel.obj
 0002:00003050       ??_C@_15FEDGKCDI@?$AAr?$AAu?$AA?$AA@ 10023050     libucrt:lcidtoname_downlevel.obj
 0002:00003058       ??_C@_15GLKMLLHM@?$AAh?$AAr?$AA?$AA@ 10023058     libucrt:lcidtoname_downlevel.obj
 0002:00003060       ??_C@_15CPKMFBDB@?$AAs?$AAk?$AA?$AA@ 10023060     libucrt:lcidtoname_downlevel.obj
 0002:00003068       ??_C@_15BAAIOGMK@?$AAs?$AAq?$AA?$AA@ 10023068     libucrt:lcidtoname_downlevel.obj
 0002:00003070       ??_C@_15INNPNOHD@?$AAs?$AAv?$AA?$AA@ 10023070     libucrt:lcidtoname_downlevel.obj
 0002:00003078       ??_C@_15CABMMOGH@?$AAt?$AAh?$AA?$AA@ 10023078     libucrt:lcidtoname_downlevel.obj
 0002:00003080       ??_C@_15BPLIHJJM@?$AAt?$AAr?$AA?$AA@ 10023080     libucrt:lcidtoname_downlevel.obj
 0002:00003088       ??_C@_15NEOEKKDJ@?$AAu?$AAr?$AA?$AA@ 10023088     libucrt:lcidtoname_downlevel.obj
 0002:00003090       ??_C@_15NFICGAJK@?$AAi?$AAd?$AA?$AA@ 10023090     libucrt:lcidtoname_downlevel.obj
 0002:00003098       ??_C@_15PJPFLCCM@?$AAu?$AAk?$AA?$AA@ 10023098     libucrt:lcidtoname_downlevel.obj
 0002:000030a0       ??_C@_15HPJPHDM@?$AAb?$AAe?$AA?$AA@ 100230a0     libucrt:lcidtoname_downlevel.obj
 0002:000030a8       ??_C@_15LCHLGJII@?$AAs?$AAl?$AA?$AA@ 100230a8     libucrt:lcidtoname_downlevel.obj
 0002:000030b0       ??_C@_15PCFJPHHO@?$AAe?$AAt?$AA?$AA@ 100230b0     libucrt:lcidtoname_downlevel.obj
 0002:000030b8       ??_C@_15HPFPGODN@?$AAl?$AAv?$AA?$AA@ 100230b8     libucrt:lcidtoname_downlevel.obj
 0002:000030c0       ??_C@_15NFFGKGLG@?$AAl?$AAt?$AA?$AA@ 100230c0     libucrt:lcidtoname_downlevel.obj
 0002:000030c8       ??_C@_15BDAKCCHN@?$AAf?$AAa?$AA?$AA@ 100230c8     libucrt:lcidtoname_downlevel.obj
 0002:000030d0       ??_C@_15NFGIAIAJ@?$AAv?$AAi?$AA?$AA@ 100230d0     libucrt:lcidtoname_downlevel.obj
 0002:000030d8       ??_C@_15LMKNDMHN@?$AAh?$AAy?$AA?$AA@ 100230d8     libucrt:lcidtoname_downlevel.obj
 0002:000030e0       ??_C@_15IJBHMCFL@?$AAa?$AAz?$AA?$AA@ 100230e0     libucrt:lcidtoname_downlevel.obj
 0002:000030e8       ??_C@_15EKOFJABL@?$AAe?$AAu?$AA?$AA@ 100230e8     libucrt:lcidtoname_downlevel.obj
 0002:000030f0       ??_C@_15BGHADCNK@?$AAm?$AAk?$AA?$AA@ 100230f0     libucrt:lcidtoname_downlevel.obj
 0002:000030f8       ??_C@_15JDNICKHM@?$AAa?$AAf?$AA?$AA@ 100230f8     libucrt:lcidtoname_downlevel.obj
 0002:00003100       ??_C@_15KPJEDBKD@?$AAk?$AAa?$AA?$AA@ 10023100     libucrt:lcidtoname_downlevel.obj
 0002:00003108       ??_C@_15PDNFFFEO@?$AAf?$AAo?$AA?$AA@ 10023108     libucrt:lcidtoname_downlevel.obj
 0002:00003110       ??_C@_15OMLEGLOC@?$AAh?$AAi?$AA?$AA@ 10023110     libucrt:lcidtoname_downlevel.obj
 0002:00003118       ??_C@_15IDNNENKK@?$AAm?$AAs?$AA?$AA@ 10023118     libucrt:lcidtoname_downlevel.obj
 0002:00003120       ??_C@_15MACJNBMH@?$AAk?$AAk?$AA?$AA@ 10023120     libucrt:lcidtoname_downlevel.obj
 0002:00003128       ??_C@_15DKDJEOND@?$AAk?$AAy?$AA?$AA@ 10023128     libucrt:lcidtoname_downlevel.obj
 0002:00003130       ??_C@_15DFGDLJBG@?$AAs?$AAw?$AA?$AA@ 10023130     libucrt:lcidtoname_downlevel.obj
 0002:00003138       ??_C@_15BBFAICNG@?$AAu?$AAz?$AA?$AA@ 10023138     libucrt:lcidtoname_downlevel.obj
 0002:00003140       ??_C@_15DKNDCGEA@?$AAt?$AAt?$AA?$AA@ 10023140     libucrt:lcidtoname_downlevel.obj
 0002:00003148       ??_C@_15MGIFMDPL@?$AAp?$AAa?$AA?$AA@ 10023148     libucrt:lcidtoname_downlevel.obj
 0002:00003150       ??_C@_15HCNDBBA@?$AAg?$AAu?$AA?$AA@ 10023150     libucrt:lcidtoname_downlevel.obj
 0002:00003158       ??_C@_15FNBEIBON@?$AAt?$AAa?$AA?$AA@ 10023158     libucrt:lcidtoname_downlevel.obj
 0002:00003160       ??_C@_15NCHGBGLK@?$AAt?$AAe?$AA?$AA@ 10023160     libucrt:lcidtoname_downlevel.obj
 0002:00003168       ??_C@_15PHPHCBPF@?$AAk?$AAn?$AA?$AA@ 10023168     libucrt:lcidtoname_downlevel.obj
 0002:00003170       ??_C@_15DLGBCKMP@?$AAm?$AAr?$AA?$AA@ 10023170     libucrt:lcidtoname_downlevel.obj
 0002:00003178       ??_C@_15EABBLBFF@?$AAs?$AAa?$AA?$AA@ 10023178     libucrt:lcidtoname_downlevel.obj
 0002:00003180       ??_C@_15CBKOMCOI@?$AAm?$AAn?$AA?$AA@ 10023180     libucrt:lcidtoname_downlevel.obj
 0002:00003188       ??_C@_15CKDMCJAF@?$AAg?$AAl?$AA?$AA@ 10023188     libucrt:lcidtoname_downlevel.obj
 0002:00003190       ??_C@_17CNJFBPG@?$AAk?$AAo?$AAk?$AA?$AA@ 10023190     libucrt:lcidtoname_downlevel.obj
 0002:00003198       ??_C@_17FFBJICPL@?$AAs?$AAy?$AAr?$AA?$AA@ 10023198     libucrt:lcidtoname_downlevel.obj
 0002:000031a0       ??_C@_17KPNDCPAF@?$AAd?$AAi?$AAv?$AA?$AA@ 100231a0     libucrt:lcidtoname_downlevel.obj
 0002:000031a8       ??_C@_1M@OKAHONE@?$AAa?$AAr?$AA?9?$AAS?$AAA?$AA?$AA@ 100231a8     libucrt:lcidtoname_downlevel.obj
 0002:000031b4       ??_C@_1M@FFFIGIGK@?$AAb?$AAg?$AA?9?$AAB?$AAG?$AA?$AA@ 100231b4     libucrt:lcidtoname_downlevel.obj
 0002:000031c0       ??_C@_1M@BJNKEDC@?$AAc?$AAa?$AA?9?$AAE?$AAS?$AA?$AA@ 100231c0     libucrt:lcidtoname_downlevel.obj
 0002:000031cc       ??_C@_1M@IJJHFJHA@?$AAc?$AAs?$AA?9?$AAC?$AAZ?$AA?$AA@ 100231cc     libucrt:lcidtoname_downlevel.obj
 0002:000031d8       ??_C@_1M@CLPEOBGI@?$AAd?$AAa?$AA?9?$AAD?$AAK?$AA?$AA@ 100231d8     libucrt:lcidtoname_downlevel.obj
 0002:000031e4       ??_C@_1M@MCMADGCB@?$AAd?$AAe?$AA?9?$AAD?$AAE?$AA?$AA@ 100231e4     libucrt:lcidtoname_downlevel.obj
 0002:000031f0       ??_C@_1M@OOCKEMAM@?$AAe?$AAl?$AA?9?$AAG?$AAR?$AA?$AA@ 100231f0     libucrt:lcidtoname_downlevel.obj
 0002:000031fc       ??_C@_1M@DDNJFGID@?$AAf?$AAi?$AA?9?$AAF?$AAI?$AA?$AA@ 100231fc     libucrt:lcidtoname_downlevel.obj
 0002:00003208       ??_C@_1M@GLIPPMAC@?$AAf?$AAr?$AA?9?$AAF?$AAR?$AA?$AA@ 10023208     libucrt:lcidtoname_downlevel.obj
 0002:00003214       ??_C@_1M@GFMCHPE@?$AAh?$AAe?$AA?9?$AAI?$AAL?$AA?$AA@ 10023214     libucrt:lcidtoname_downlevel.obj
 0002:00003220       ??_C@_1M@MHLPGNKM@?$AAh?$AAu?$AA?9?$AAH?$AAU?$AA?$AA@ 10023220     libucrt:lcidtoname_downlevel.obj
 0002:0000322c       ??_C@_1M@LPDDNNPN@?$AAi?$AAs?$AA?9?$AAI?$AAS?$AA?$AA@ 1002322c     libucrt:lcidtoname_downlevel.obj
 0002:00003238       ??_C@_1M@MADIPODN@?$AAi?$AAt?$AA?9?$AAI?$AAT?$AA?$AA@ 10023238     libucrt:lcidtoname_downlevel.obj
 0002:00003244       ??_C@_1M@IHBJJGG@?$AAn?$AAl?$AA?9?$AAN?$AAL?$AA?$AA@ 10023244     libucrt:lcidtoname_downlevel.obj
 0002:00003250       ??_C@_1M@EANAGDL@?$AAn?$AAb?$AA?9?$AAN?$AAO?$AA?$AA@ 10023250     libucrt:lcidtoname_downlevel.obj
 0002:0000325c       ??_C@_1M@NEIEMEGP@?$AAp?$AAl?$AA?9?$AAP?$AAL?$AA?$AA@ 1002325c     libucrt:lcidtoname_downlevel.obj
 0002:00003268       ??_C@_1M@BOCFIGEP@?$AAp?$AAt?$AA?9?$AAB?$AAR?$AA?$AA@ 10023268     libucrt:lcidtoname_downlevel.obj
 0002:00003274       ??_C@_1M@IMPFOPBG@?$AAr?$AAo?$AA?9?$AAR?$AAO?$AA?$AA@ 10023274     libucrt:lcidtoname_downlevel.obj
 0002:00003280       ??_C@_1M@IDNNEJMM@?$AAr?$AAu?$AA?9?$AAR?$AAU?$AA?$AA@ 10023280     libucrt:lcidtoname_downlevel.obj
 0002:0000328c       ??_C@_1M@LILEEOGM@?$AAh?$AAr?$AA?9?$AAH?$AAR?$AA?$AA@ 1002328c     libucrt:lcidtoname_downlevel.obj
 0002:00003298       ??_C@_1M@FKIFEHPB@?$AAs?$AAk?$AA?9?$AAS?$AAK?$AA?$AA@ 10023298     libucrt:lcidtoname_downlevel.obj
 0002:000032a4       ??_C@_1M@LJMAMNPJ@?$AAs?$AAq?$AA?9?$AAA?$AAL?$AA?$AA@ 100232a4     libucrt:lcidtoname_downlevel.obj
 0002:000032b0       ??_C@_1M@GIAKDKJK@?$AAs?$AAv?$AA?9?$AAS?$AAE?$AA?$AA@ 100232b0     libucrt:lcidtoname_downlevel.obj
 0002:000032bc       ??_C@_1M@MKJKIKCL@?$AAt?$AAh?$AA?9?$AAT?$AAH?$AA?$AA@ 100232bc     libucrt:lcidtoname_downlevel.obj
 0002:000032c8       ??_C@_1M@MFLCCMPB@?$AAt?$AAr?$AA?9?$AAT?$AAR?$AA?$AA@ 100232c8     libucrt:lcidtoname_downlevel.obj
 0002:000032d4       ??_C@_1M@OIJHDKJN@?$AAu?$AAr?$AA?9?$AAP?$AAK?$AA?$AA@ 100232d4     libucrt:lcidtoname_downlevel.obj
 0002:000032e0       ??_C@_1M@LHIPCIEK@?$AAi?$AAd?$AA?9?$AAI?$AAD?$AA?$AA@ 100232e0     libucrt:lcidtoname_downlevel.obj
 0002:000032ec       ??_C@_1M@MFMOBGI@?$AAu?$AAk?$AA?9?$AAU?$AAA?$AA?$AA@ 100232ec     libucrt:lcidtoname_downlevel.obj
 0002:000032f8       ??_C@_1M@OBGLJIPL@?$AAb?$AAe?$AA?9?$AAB?$AAY?$AA?$AA@ 100232f8     libucrt:lcidtoname_downlevel.obj
 0002:00003304       ??_C@_1M@BCFAJEAD@?$AAs?$AAl?$AA?9?$AAS?$AAI?$AA?$AA@ 10023304     libucrt:lcidtoname_downlevel.obj
 0002:00003310       ??_C@_1M@FKFFEDDN@?$AAe?$AAt?$AA?9?$AAE?$AAE?$AA?$AA@ 10023310     libucrt:lcidtoname_downlevel.obj
 0002:0000331c       ??_C@_1M@KGKKAACI@?$AAl?$AAv?$AA?9?$AAL?$AAV?$AA?$AA@ 1002331c     libucrt:lcidtoname_downlevel.obj
 0002:00003328       ??_C@_1M@IFGBIJO@?$AAl?$AAt?$AA?9?$AAL?$AAT?$AA?$AA@ 10023328     libucrt:lcidtoname_downlevel.obj
 0002:00003334       ??_C@_1M@FGEAHEDM@?$AAf?$AAa?$AA?9?$AAI?$AAR?$AA?$AA@ 10023334     libucrt:lcidtoname_downlevel.obj
 0002:00003340       ??_C@_1M@KBMAIBFN@?$AAv?$AAi?$AA?9?$AAV?$AAN?$AA?$AA@ 10023340     libucrt:lcidtoname_downlevel.obj
 0002:0000334c       ??_C@_1M@GPCBKDJK@?$AAh?$AAy?$AA?9?$AAA?$AAM?$AA?$AA@ 1002334c     libucrt:lcidtoname_downlevel.obj
 0002:00003358       ??_C@_1BG@BECMDDJB@?$AAa?$AAz?$AA?9?$AAA?$AAZ?$AA?9?$AAL?$AAa?$AAt?$AAn?$AA?$AA@ 10023358     libucrt:lcidtoname_downlevel.obj
 0002:00003370       ??_C@_1M@MAOFCAEA@?$AAe?$AAu?$AA?9?$AAE?$AAS?$AA?$AA@ 10023370     libucrt:lcidtoname_downlevel.obj
 0002:0000337c       ??_C@_1M@IGHABKPI@?$AAm?$AAk?$AA?9?$AAM?$AAK?$AA?$AA@ 1002337c     libucrt:lcidtoname_downlevel.obj
 0002:00003388       ??_C@_1M@IAIGNEJG@?$AAt?$AAn?$AA?9?$AAZ?$AAA?$AA?$AA@ 10023388     libucrt:lcidtoname_downlevel.obj
 0002:00003394       ??_C@_1M@IIJCOJFA@?$AAx?$AAh?$AA?9?$AAZ?$AAA?$AA?$AA@ 10023394     libucrt:lcidtoname_downlevel.obj
 0002:000033a0       ??_C@_1M@LGPJHNJH@?$AAz?$AAu?$AA?9?$AAZ?$AAA?$AA?$AA@ 100233a0     libucrt:lcidtoname_downlevel.obj
 0002:000033ac       ??_C@_1M@HOKAOIO@?$AAa?$AAf?$AA?9?$AAZ?$AAA?$AA?$AA@ 100233ac     libucrt:lcidtoname_downlevel.obj
 0002:000033b8       ??_C@_1M@DPCLHLIE@?$AAk?$AAa?$AA?9?$AAG?$AAE?$AA?$AA@ 100233b8     libucrt:lcidtoname_downlevel.obj
 0002:000033c4       ??_C@_1M@BLKMHJBI@?$AAf?$AAo?$AA?9?$AAF?$AAO?$AA?$AA@ 100233c4     libucrt:lcidtoname_downlevel.obj
 0002:000033d0       ??_C@_1M@LGGJAPPB@?$AAh?$AAi?$AA?9?$AAI?$AAN?$AA?$AA@ 100233d0     libucrt:lcidtoname_downlevel.obj
 0002:000033dc       ??_C@_1M@FIKPIHFE@?$AAm?$AAt?$AA?9?$AAM?$AAT?$AA?$AA@ 100233dc     libucrt:lcidtoname_downlevel.obj
 0002:000033e8       ??_C@_1M@HEGGPBFA@?$AAs?$AAe?$AA?9?$AAN?$AAO?$AA?$AA@ 100233e8     libucrt:lcidtoname_downlevel.obj
 0002:000033f4       ??_C@_1M@EIBJEEPA@?$AAm?$AAs?$AA?9?$AAM?$AAY?$AA?$AA@ 100233f4     libucrt:lcidtoname_downlevel.obj
 0002:00003400       ??_C@_1M@FHLBGMPP@?$AAk?$AAk?$AA?9?$AAK?$AAZ?$AA?$AA@ 10023400     libucrt:lcidtoname_downlevel.obj
 0002:0000340c       ??_C@_1M@NGJJLCGI@?$AAk?$AAy?$AA?9?$AAK?$AAG?$AA?$AA@ 1002340c     libucrt:lcidtoname_downlevel.obj
 0002:00003418       ??_C@_1M@GIENNBFC@?$AAs?$AAw?$AA?9?$AAK?$AAE?$AA?$AA@ 10023418     libucrt:lcidtoname_downlevel.obj
 0002:00003424       ??_C@_1BG@NDGMJIMJ@?$AAu?$AAz?$AA?9?$AAU?$AAZ?$AA?9?$AAL?$AAa?$AAt?$AAn?$AA?$AA@ 10023424     libucrt:lcidtoname_downlevel.obj
 0002:0000343c       ??_C@_1M@IDCCIHBC@?$AAt?$AAt?$AA?9?$AAR?$AAU?$AA?$AA@ 1002343c     libucrt:lcidtoname_downlevel.obj
 0002:00003448       ??_C@_1M@LOICPMOJ@?$AAb?$AAn?$AA?9?$AAI?$AAN?$AA?$AA@ 10023448     libucrt:lcidtoname_downlevel.obj
 0002:00003454       ??_C@_1M@KPKKNEAH@?$AAp?$AAa?$AA?9?$AAI?$AAN?$AA?$AA@ 10023454     libucrt:lcidtoname_downlevel.obj
 0002:00003460       ??_C@_1M@PJGPPBOG@?$AAg?$AAu?$AA?9?$AAI?$AAN?$AA?$AA@ 10023460     libucrt:lcidtoname_downlevel.obj
 0002:0000346c       ??_C@_1M@KMKMOPHI@?$AAt?$AAa?$AA?9?$AAI?$AAN?$AA?$AA@ 1002346c     libucrt:lcidtoname_downlevel.obj
 0002:00003478       ??_C@_1M@KFEHEPAC@?$AAt?$AAe?$AA?9?$AAI?$AAN?$AA?$AA@ 10023478     libucrt:lcidtoname_downlevel.obj
 0002:00003484       ??_C@_1M@CDCLMGHI@?$AAk?$AAn?$AA?9?$AAI?$AAN?$AA?$AA@ 10023484     libucrt:lcidtoname_downlevel.obj
 0002:00003490       ??_C@_1M@MIODLDKF@?$AAm?$AAl?$AA?9?$AAI?$AAN?$AA?$AA@ 10023490     libucrt:lcidtoname_downlevel.obj
 0002:0000349c       ??_C@_1M@PBIEACPO@?$AAm?$AAr?$AA?9?$AAI?$AAN?$AA?$AA@ 1002349c     libucrt:lcidtoname_downlevel.obj
 0002:000034a8       ??_C@_1M@NIDEAGPH@?$AAs?$AAa?$AA?9?$AAI?$AAN?$AA?$AA@ 100234a8     libucrt:lcidtoname_downlevel.obj
 0002:000034b4       ??_C@_1M@FHIHCBIO@?$AAm?$AAn?$AA?9?$AAM?$AAN?$AA?$AA@ 100234b4     libucrt:lcidtoname_downlevel.obj
 0002:000034c0       ??_C@_1M@JAIJPENP@?$AAc?$AAy?$AA?9?$AAG?$AAB?$AA?$AA@ 100234c0     libucrt:lcidtoname_downlevel.obj
 0002:000034cc       ??_C@_1M@PHGFBEPN@?$AAg?$AAl?$AA?9?$AAE?$AAS?$AA?$AA@ 100234cc     libucrt:lcidtoname_downlevel.obj
 0002:000034d8       ??_C@_1O@KPIPDNCP@?$AAk?$AAo?$AAk?$AA?9?$AAI?$AAN?$AA?$AA@ 100234d8     libucrt:lcidtoname_downlevel.obj
 0002:000034e8       ??_C@_1O@KNHJLDJA@?$AAs?$AAy?$AAr?$AA?9?$AAS?$AAY?$AA?$AA@ 100234e8     libucrt:lcidtoname_downlevel.obj
 0002:000034f8       ??_C@_1O@MKEKBLAH@?$AAd?$AAi?$AAv?$AA?9?$AAM?$AAV?$AA?$AA@ 100234f8     libucrt:lcidtoname_downlevel.obj
 0002:00003508       ??_C@_1O@OHDCKDDF@?$AAq?$AAu?$AAz?$AA?9?$AAB?$AAO?$AA?$AA@ 10023508     libucrt:lcidtoname_downlevel.obj
 0002:00003518       ??_C@_1M@LEPJNLFD@?$AAn?$AAs?$AA?9?$AAZ?$AAA?$AA?$AA@ 10023518     libucrt:lcidtoname_downlevel.obj
 0002:00003524       ??_C@_1M@OMLEIIJB@?$AAm?$AAi?$AA?9?$AAN?$AAZ?$AA?$AA@ 10023524     libucrt:lcidtoname_downlevel.obj
 0002:00003530       ??_C@_1M@PMPEAILG@?$AAa?$AAr?$AA?9?$AAI?$AAQ?$AA?$AA@ 10023530     libucrt:lcidtoname_downlevel.obj
 0002:0000353c       ??_C@_1M@CNKPNOEE@?$AAd?$AAe?$AA?9?$AAC?$AAH?$AA?$AA@ 1002353c     libucrt:lcidtoname_downlevel.obj
 0002:00003548       ??_C@_1M@LKMGMLKO@?$AAe?$AAn?$AA?9?$AAG?$AAB?$AA?$AA@ 10023548     libucrt:lcidtoname_downlevel.obj
 0002:00003554       ??_C@_1M@PGKJFFGL@?$AAe?$AAs?$AA?9?$AAM?$AAX?$AA?$AA@ 10023554     libucrt:lcidtoname_downlevel.obj
 0002:00003560       ??_C@_1M@DNNANBDC@?$AAf?$AAr?$AA?9?$AAB?$AAE?$AA?$AA@ 10023560     libucrt:lcidtoname_downlevel.obj
 0002:0000356c       ??_C@_1M@HLGMDFHM@?$AAi?$AAt?$AA?9?$AAC?$AAH?$AA?$AA@ 1002356c     libucrt:lcidtoname_downlevel.obj
 0002:00003578       ??_C@_1M@CLLBGJH@?$AAn?$AAl?$AA?9?$AAB?$AAE?$AA?$AA@ 10023578     libucrt:lcidtoname_downlevel.obj
 0002:00003584       ??_C@_1M@BODBOGLF@?$AAn?$AAn?$AA?9?$AAN?$AAO?$AA?$AA@ 10023584     libucrt:lcidtoname_downlevel.obj
 0002:00003590       ??_C@_1M@HFFAHKAD@?$AAp?$AAt?$AA?9?$AAP?$AAT?$AA?$AA@ 10023590     libucrt:lcidtoname_downlevel.obj
 0002:0000359c       ??_C@_1BG@LNOAKHIE@?$AAs?$AAr?$AA?9?$AAS?$AAP?$AA?9?$AAL?$AAa?$AAt?$AAn?$AA?$AA@ 1002359c     libucrt:lcidtoname_downlevel.obj
 0002:000035b4       ??_C@_1M@HBMHBGAK@?$AAs?$AAv?$AA?9?$AAF?$AAI?$AA?$AA@ 100235b4     libucrt:lcidtoname_downlevel.obj
 0002:000035c0       ??_C@_1BG@DGCJGJBE@?$AAa?$AAz?$AA?9?$AAA?$AAZ?$AA?9?$AAC?$AAy?$AAr?$AAl?$AA?$AA@ 100235c0     libucrt:lcidtoname_downlevel.obj
 0002:000035d8       ??_C@_1M@KEJDAAHB@?$AAs?$AAe?$AA?9?$AAS?$AAE?$AA?$AA@ 100235d8     libucrt:lcidtoname_downlevel.obj
 0002:000035e4       ??_C@_1M@HEIBJJAD@?$AAm?$AAs?$AA?9?$AAB?$AAN?$AA?$AA@ 100235e4     libucrt:lcidtoname_downlevel.obj
 0002:000035f0       ??_C@_1BG@PBGJMCEM@?$AAu?$AAz?$AA?9?$AAU?$AAZ?$AA?9?$AAC?$AAy?$AAr?$AAl?$AA?$AA@ 100235f0     libucrt:lcidtoname_downlevel.obj
 0002:00003608       ??_C@_1O@LAOBCMDF@?$AAq?$AAu?$AAz?$AA?9?$AAE?$AAC?$AA?$AA@ 10023608     libucrt:lcidtoname_downlevel.obj
 0002:00003618       ??_C@_1M@POEEMAIO@?$AAa?$AAr?$AA?9?$AAE?$AAG?$AA?$AA@ 10023618     libucrt:lcidtoname_downlevel.obj
 0002:00003624       ??_C@_1M@EFAKDEDL@?$AAz?$AAh?$AA?9?$AAH?$AAK?$AA?$AA@ 10023624     libucrt:lcidtoname_downlevel.obj
 0002:00003630       ??_C@_1M@HKKIJHGI@?$AAd?$AAe?$AA?9?$AAA?$AAT?$AA?$AA@ 10023630     libucrt:lcidtoname_downlevel.obj
 0002:0000363c       ??_C@_1M@KBFBEHJF@?$AAe?$AAn?$AA?9?$AAA?$AAU?$AA?$AA@ 1002363c     libucrt:lcidtoname_downlevel.obj
 0002:00003648       ??_C@_1M@MNPLFAAH@?$AAe?$AAs?$AA?9?$AAE?$AAS?$AA?$AA@ 10023648     libucrt:lcidtoname_downlevel.obj
 0002:00003654       ??_C@_1M@HJOOJFMA@?$AAf?$AAr?$AA?9?$AAC?$AAA?$AA?$AA@ 10023654     libucrt:lcidtoname_downlevel.obj
 0002:00003660       ??_C@_1BG@JPOFPNAB@?$AAs?$AAr?$AA?9?$AAS?$AAP?$AA?9?$AAC?$AAy?$AAr?$AAl?$AA?$AA@ 10023660     libucrt:lcidtoname_downlevel.obj
 0002:00003678       ??_C@_1M@LNFOCMOB@?$AAs?$AAe?$AA?9?$AAF?$AAI?$AA?$AA@ 10023678     libucrt:lcidtoname_downlevel.obj
 0002:00003684       ??_C@_1O@MGJBOAMB@?$AAq?$AAu?$AAz?$AA?9?$AAP?$AAE?$AA?$AA@ 10023684     libucrt:lcidtoname_downlevel.obj
 0002:00003694       ??_C@_1M@GJINLBOK@?$AAa?$AAr?$AA?9?$AAL?$AAY?$AA?$AA@ 10023694     libucrt:lcidtoname_downlevel.obj
 0002:000036a0       ??_C@_1M@GGMNHJNL@?$AAz?$AAh?$AA?9?$AAS?$AAG?$AA?$AA@ 100236a0     libucrt:lcidtoname_downlevel.obj
 0002:000036ac       ??_C@_1M@HOIKODND@?$AAd?$AAe?$AA?9?$AAL?$AAU?$AA?$AA@ 100236ac     libucrt:lcidtoname_downlevel.obj
 0002:000036b8       ??_C@_1M@DDOCCGFG@?$AAe?$AAn?$AA?9?$AAC?$AAA?$AA?$AA@ 100236b8     libucrt:lcidtoname_downlevel.obj
 0002:000036c4       ??_C@_1M@BNOEMJLF@?$AAe?$AAs?$AA?9?$AAG?$AAT?$AA?$AA@ 100236c4     libucrt:lcidtoname_downlevel.obj
 0002:000036d0       ??_C@_1M@EOGNKEK@?$AAf?$AAr?$AA?9?$AAC?$AAH?$AA?$AA@ 100236d0     libucrt:lcidtoname_downlevel.obj
 0002:000036dc       ??_C@_1M@FLIDJFHL@?$AAh?$AAr?$AA?9?$AAB?$AAA?$AA?$AA@ 100236dc     libucrt:lcidtoname_downlevel.obj
 0002:000036e8       ??_C@_1O@FMCELNAJ@?$AAs?$AAm?$AAj?$AA?9?$AAN?$AAO?$AA?$AA@ 100236e8     libucrt:lcidtoname_downlevel.obj
 0002:000036f8       ??_C@_1M@JHGLJMGJ@?$AAa?$AAr?$AA?9?$AAD?$AAZ?$AA?$AA@ 100236f8     libucrt:lcidtoname_downlevel.obj
 0002:00003704       ??_C@_1M@JKKFDCNP@?$AAz?$AAh?$AA?9?$AAM?$AAO?$AA?$AA@ 10023704     libucrt:lcidtoname_downlevel.obj
 0002:00003710       ??_C@_1M@GEEFALPE@?$AAd?$AAe?$AA?9?$AAL?$AAI?$AA?$AA@ 10023710     libucrt:lcidtoname_downlevel.obj
 0002:0000371c       ??_C@_1M@IGEOFBG@?$AAe?$AAn?$AA?9?$AAN?$AAZ?$AA?$AA@ 1002371c     libucrt:lcidtoname_downlevel.obj
 0002:00003728       ??_C@_1M@KDBONEHP@?$AAe?$AAs?$AA?9?$AAC?$AAR?$AA?$AA@ 10023728     libucrt:lcidtoname_downlevel.obj
 0002:00003734       ??_C@_1M@FHMDOHNN@?$AAf?$AAr?$AA?9?$AAL?$AAU?$AA?$AA@ 10023734     libucrt:lcidtoname_downlevel.obj
 0002:00003740       ??_C@_1BG@NFKKMAFG@?$AAb?$AAs?$AA?9?$AAB?$AAA?$AA?9?$AAL?$AAa?$AAt?$AAn?$AA?$AA@ 10023740     libucrt:lcidtoname_downlevel.obj
 0002:00003758       ??_C@_1O@IMNBEMCI@?$AAs?$AAm?$AAj?$AA?9?$AAS?$AAE?$AA?$AA@ 10023758     libucrt:lcidtoname_downlevel.obj
 0002:00003768       ??_C@_1M@DHHMBNDP@?$AAa?$AAr?$AA?9?$AAM?$AAA?$AA?$AA@ 10023768     libucrt:lcidtoname_downlevel.obj
 0002:00003774       ??_C@_1M@BNBLJCGH@?$AAe?$AAn?$AA?9?$AAI?$AAE?$AA?$AA@ 10023774     libucrt:lcidtoname_downlevel.obj
 0002:00003780       ??_C@_1M@GEPAFMDL@?$AAe?$AAs?$AA?9?$AAP?$AAA?$AA?$AA@ 10023780     libucrt:lcidtoname_downlevel.obj
 0002:0000378c       ??_C@_1M@OJONDMDL@?$AAf?$AAr?$AA?9?$AAM?$AAC?$AA?$AA@ 1002378c     libucrt:lcidtoname_downlevel.obj
 0002:00003798       ??_C@_1BG@OBCNFJB@?$AAs?$AAr?$AA?9?$AAB?$AAA?$AA?9?$AAL?$AAa?$AAt?$AAn?$AA?$AA@ 10023798     libucrt:lcidtoname_downlevel.obj
 0002:000037b0       ??_C@_1O@KEMEEGPO@?$AAs?$AAm?$AAa?$AA?9?$AAN?$AAO?$AA?$AA@ 100237b0     libucrt:lcidtoname_downlevel.obj
 0002:000037c0       ??_C@_1M@ELMGFODK@?$AAa?$AAr?$AA?9?$AAT?$AAN?$AA?$AA@ 100237c0     libucrt:lcidtoname_downlevel.obj
 0002:000037cc       ??_C@_1M@BHDLHFAF@?$AAe?$AAn?$AA?9?$AAZ?$AAA?$AA?$AA@ 100237cc     libucrt:lcidtoname_downlevel.obj
 0002:000037d8       ??_C@_1M@BMGIGLIF@?$AAe?$AAs?$AA?9?$AAD?$AAO?$AA?$AA@ 100237d8     libucrt:lcidtoname_downlevel.obj
 0002:000037e4       ??_C@_1BG@CMBHIPBE@?$AAs?$AAr?$AA?9?$AAB?$AAA?$AA?9?$AAC?$AAy?$AAr?$AAl?$AA?$AA@ 100237e4     libucrt:lcidtoname_downlevel.obj
 0002:000037fc       ??_C@_1O@HEDBLHNP@?$AAs?$AAm?$AAa?$AA?9?$AAS?$AAE?$AA?$AA@ 100237fc     libucrt:lcidtoname_downlevel.obj
 0002:0000380c       ??_C@_1M@DAGCADIM@?$AAa?$AAr?$AA?9?$AAO?$AAM?$AA?$AA@ 1002380c     libucrt:lcidtoname_downlevel.obj
 0002:00003818       ??_C@_1M@FODLMICG@?$AAe?$AAn?$AA?9?$AAJ?$AAM?$AA?$AA@ 10023818     libucrt:lcidtoname_downlevel.obj
 0002:00003824       ??_C@_1M@DNMLCIHB@?$AAe?$AAs?$AA?9?$AAV?$AAE?$AA?$AA@ 10023824     libucrt:lcidtoname_downlevel.obj
 0002:00003830       ??_C@_1O@EOKHMKJK@?$AAs?$AAm?$AAs?$AA?9?$AAF?$AAI?$AA?$AA@ 10023830     libucrt:lcidtoname_downlevel.obj
 0002:00003840       ??_C@_1M@CAFJMKOF@?$AAa?$AAr?$AA?9?$AAY?$AAE?$AA?$AA@ 10023840     libucrt:lcidtoname_downlevel.obj
 0002:0000384c       ??_C@_1M@CBFHIJLI@?$AAe?$AAn?$AA?9?$AAC?$AAB?$AA?$AA@ 1002384c     libucrt:lcidtoname_downlevel.obj
 0002:00003858       ??_C@_1M@BGNFLDN@?$AAe?$AAs?$AA?9?$AAC?$AAO?$AA?$AA@ 10023858     libucrt:lcidtoname_downlevel.obj
 0002:00003864       ??_C@_1O@JMPHMAMC@?$AAs?$AAm?$AAn?$AA?9?$AAF?$AAI?$AA?$AA@ 10023864     libucrt:lcidtoname_downlevel.obj
 0002:00003874       ??_C@_1M@JLANABKE@?$AAa?$AAr?$AA?9?$AAS?$AAY?$AA?$AA@ 10023874     libucrt:lcidtoname_downlevel.obj
 0002:00003880       ??_C@_1M@HPKGCFGN@?$AAe?$AAn?$AA?9?$AAB?$AAZ?$AA?$AA@ 10023880     libucrt:lcidtoname_downlevel.obj
 0002:0000388c       ??_C@_1M@OLJCMLGM@?$AAe?$AAs?$AA?9?$AAP?$AAE?$AA?$AA@ 1002388c     libucrt:lcidtoname_downlevel.obj
 0002:00003898       ??_C@_1M@MKKGFKLE@?$AAa?$AAr?$AA?9?$AAJ?$AAO?$AA?$AA@ 10023898     libucrt:lcidtoname_downlevel.obj
 0002:000038a4       ??_C@_1M@EKPGLDNI@?$AAe?$AAn?$AA?9?$AAT?$AAT?$AA?$AA@ 100238a4     libucrt:lcidtoname_downlevel.obj
 0002:000038b0       ??_C@_1M@OONGHFHE@?$AAe?$AAs?$AA?9?$AAA?$AAR?$AA?$AA@ 100238b0     libucrt:lcidtoname_downlevel.obj
 0002:000038bc       ??_C@_1M@OOJFGBHE@?$AAa?$AAr?$AA?9?$AAL?$AAB?$AA?$AA@ 100238bc     libucrt:lcidtoname_downlevel.obj
 0002:000038c8       ??_C@_1M@GCEJHNEG@?$AAe?$AAn?$AA?9?$AAZ?$AAW?$AA?$AA@ 100238c8     libucrt:lcidtoname_downlevel.obj
 0002:000038d4       ??_C@_1M@JNOCAHJI@?$AAe?$AAs?$AA?9?$AAE?$AAC?$AA?$AA@ 100238d4     libucrt:lcidtoname_downlevel.obj
 0002:000038e0       ??_C@_1M@JEFHPGGB@?$AAa?$AAr?$AA?9?$AAK?$AAW?$AA?$AA@ 100238e0     libucrt:lcidtoname_downlevel.obj
 0002:000038ec       ??_C@_1M@MLKIBJOJ@?$AAe?$AAn?$AA?9?$AAP?$AAH?$AA?$AA@ 100238ec     libucrt:lcidtoname_downlevel.obj
 0002:000038f8       ??_C@_1M@BDNIPEND@?$AAe?$AAs?$AA?9?$AAC?$AAL?$AA?$AA@ 100238f8     libucrt:lcidtoname_downlevel.obj
 0002:00003904       ??_C@_1M@MPNMEKBD@?$AAa?$AAr?$AA?9?$AAA?$AAE?$AA?$AA@ 10023904     libucrt:lcidtoname_downlevel.obj
 0002:00003910       ??_C@_1M@KBJALCPI@?$AAe?$AAs?$AA?9?$AAU?$AAY?$AA?$AA@ 10023910     libucrt:lcidtoname_downlevel.obj
 0002:0000391c       ??_C@_1M@LLCCOAGA@?$AAa?$AAr?$AA?9?$AAB?$AAH?$AA?$AA@ 1002391c     libucrt:lcidtoname_downlevel.obj
 0002:00003928       ??_C@_1M@PBFNCDEL@?$AAe?$AAs?$AA?9?$AAP?$AAY?$AA?$AA@ 10023928     libucrt:lcidtoname_downlevel.obj
 0002:00003934       ??_C@_1M@EDGINPNP@?$AAa?$AAr?$AA?9?$AAQ?$AAA?$AA?$AA@ 10023934     libucrt:lcidtoname_downlevel.obj
 0002:00003940       ??_C@_1M@MKDBIIJI@?$AAe?$AAs?$AA?9?$AAB?$AAO?$AA?$AA@ 10023940     libucrt:lcidtoname_downlevel.obj
 0002:0000394c       ??_C@_1M@CPKKEBLD@?$AAe?$AAs?$AA?9?$AAS?$AAV?$AA?$AA@ 1002394c     libucrt:lcidtoname_downlevel.obj
 0002:00003958       ??_C@_1M@NDBGMMJL@?$AAe?$AAs?$AA?9?$AAH?$AAN?$AA?$AA@ 10023958     libucrt:lcidtoname_downlevel.obj
 0002:00003964       ??_C@_1M@JIJIBHDP@?$AAe?$AAs?$AA?9?$AAN?$AAI?$AA?$AA@ 10023964     libucrt:lcidtoname_downlevel.obj
 0002:00003970       ??_C@_1M@CGFMKEEK@?$AAe?$AAs?$AA?9?$AAP?$AAR?$AA?$AA@ 10023970     libucrt:lcidtoname_downlevel.obj
 0002:0000397c       ??_C@_1O@ICJHKIIK@?$AAz?$AAh?$AA?9?$AAC?$AAH?$AAT?$AA?$AA@ 1002397c     libucrt:lcidtoname_downlevel.obj
 0002:0000398c       ??_C@_15CLNEJCE@?$AAs?$AAr?$AA?$AA@ 1002398c     libucrt:lcidtoname_downlevel.obj
 0002:000040b8       ??_C@_1M@KAHEKEIG@?$AAa?$AAf?$AA?9?$AAz?$AAa?$AA?$AA@ 100240b8     libucrt:lcidtoname_downlevel.obj
 0002:000040c4       ??_C@_1M@GIECOABL@?$AAa?$AAr?$AA?9?$AAa?$AAe?$AA?$AA@ 100240c4     libucrt:lcidtoname_downlevel.obj
 0002:000040d0       ??_C@_1M@BMLMEKGI@?$AAa?$AAr?$AA?9?$AAb?$AAh?$AA?$AA@ 100240d0     libucrt:lcidtoname_downlevel.obj
 0002:000040dc       ??_C@_1M@DAPFDGGB@?$AAa?$AAr?$AA?9?$AAd?$AAz?$AA?$AA@ 100240dc     libucrt:lcidtoname_downlevel.obj
 0002:000040e8       ??_C@_1M@FJNKGKIG@?$AAa?$AAr?$AA?9?$AAe?$AAg?$AA?$AA@ 100240e8     libucrt:lcidtoname_downlevel.obj
 0002:000040f4       ??_C@_1M@FLGKKCLO@?$AAa?$AAr?$AA?9?$AAi?$AAq?$AA?$AA@ 100240f4     libucrt:lcidtoname_downlevel.obj
 0002:00004100       ??_C@_1M@GNDIPALM@?$AAa?$AAr?$AA?9?$AAj?$AAo?$AA?$AA@ 10024100     libucrt:lcidtoname_downlevel.obj
 0002:0000410c       ??_C@_1M@DDMJFMGJ@?$AAa?$AAr?$AA?9?$AAk?$AAw?$AA?$AA@ 1002410c     libucrt:lcidtoname_downlevel.obj
 0002:00004118       ??_C@_1M@EJALMLHM@?$AAa?$AAr?$AA?9?$AAl?$AAb?$AA?$AA@ 10024118     libucrt:lcidtoname_downlevel.obj
 0002:00004124       ??_C@_1M@MOBDBLOC@?$AAa?$AAr?$AA?9?$AAl?$AAy?$AA?$AA@ 10024124     libucrt:lcidtoname_downlevel.obj
 0002:00004130       ??_C@_1M@JAOCLHDH@?$AAa?$AAr?$AA?9?$AAm?$AAa?$AA?$AA@ 10024130     libucrt:lcidtoname_downlevel.obj
 0002:0000413c       ??_C@_1M@JHPMKJIE@?$AAa?$AAr?$AA?9?$AAo?$AAm?$AA?$AA@ 1002413c     libucrt:lcidtoname_downlevel.obj
 0002:00004148       ??_C@_1M@OEPGHFNH@?$AAa?$AAr?$AA?9?$AAq?$AAa?$AA?$AA@ 10024148     libucrt:lcidtoname_downlevel.obj
 0002:00004154       ??_C@_1M@KJDONENM@?$AAa?$AAr?$AA?9?$AAs?$AAa?$AA?$AA@ 10024154     libucrt:lcidtoname_downlevel.obj
 0002:00004160       ??_C@_1M@DMJDKLKM@?$AAa?$AAr?$AA?9?$AAs?$AAy?$AA?$AA@ 10024160     libucrt:lcidtoname_downlevel.obj
 0002:0000416c       ??_C@_1M@OMFIPEDC@?$AAa?$AAr?$AA?9?$AAt?$AAn?$AA?$AA@ 1002416c     libucrt:lcidtoname_downlevel.obj
 0002:00004178       ??_C@_1M@IHMHGAON@?$AAa?$AAr?$AA?9?$AAy?$AAe?$AA?$AA@ 10024178     libucrt:lcidtoname_downlevel.obj
 0002:00004184       ??_C@_1BG@KDCPGJGB@?$AAa?$AAz?$AA?9?$AAa?$AAz?$AA?9?$AAc?$AAy?$AAr?$AAl?$AA?$AA@ 10024184     libucrt:lcidtoname_downlevel.obj
 0002:0000419c       ??_C@_1BG@IBCKDDOE@?$AAa?$AAz?$AA?9?$AAa?$AAz?$AA?9?$AAl?$AAa?$AAt?$AAn?$AA?$AA@ 1002419c     libucrt:lcidtoname_downlevel.obj
 0002:000041b4       ??_C@_1M@EGPFDCPD@?$AAb?$AAe?$AA?9?$AAb?$AAy?$AA?$AA@ 100241b4     libucrt:lcidtoname_downlevel.obj
 0002:000041c0       ??_C@_1M@PCMGMCGC@?$AAb?$AAg?$AA?9?$AAb?$AAg?$AA?$AA@ 100241c0     libucrt:lcidtoname_downlevel.obj
 0002:000041cc       ??_C@_1M@BJBMFGOB@?$AAb?$AAn?$AA?9?$AAi?$AAn?$AA?$AA@ 100241cc     libucrt:lcidtoname_downlevel.obj
 0002:000041d8       ??_C@_1BG@EAKMMACD@?$AAb?$AAs?$AA?9?$AAb?$AAa?$AA?9?$AAl?$AAa?$AAt?$AAn?$AA?$AA@ 100241d8     libucrt:lcidtoname_downlevel.obj
 0002:000041f0       ??_C@_1M@KGADAODK@?$AAc?$AAa?$AA?9?$AAe?$AAs?$AA?$AA@ 100241f0     libucrt:lcidtoname_downlevel.obj
 0002:000041fc       ??_C@_1M@COAJPDHI@?$AAc?$AAs?$AA?9?$AAc?$AAz?$AA?$AA@ 100241fc     libucrt:lcidtoname_downlevel.obj
 0002:00004208       ??_C@_1M@DHBHFONH@?$AAc?$AAy?$AA?9?$AAg?$AAb?$AA?$AA@ 10024208     libucrt:lcidtoname_downlevel.obj
 0002:00004214       ??_C@_1M@IMGKELGA@?$AAd?$AAa?$AA?9?$AAd?$AAk?$AA?$AA@ 10024214     libucrt:lcidtoname_downlevel.obj
 0002:00004220       ??_C@_1M@NNDGDNGA@?$AAd?$AAe?$AA?9?$AAa?$AAt?$AA?$AA@ 10024220     libucrt:lcidtoname_downlevel.obj
 0002:0000422c       ??_C@_1M@IKDBHEEM@?$AAd?$AAe?$AA?9?$AAc?$AAh?$AA?$AA@ 1002422c     libucrt:lcidtoname_downlevel.obj
 0002:00004238       ??_C@_1M@GFFOJMCJ@?$AAd?$AAe?$AA?9?$AAd?$AAe?$AA?$AA@ 10024238     libucrt:lcidtoname_downlevel.obj
 0002:00004244       ??_C@_1M@MDNLKBPM@?$AAd?$AAe?$AA?9?$AAl?$AAi?$AA?$AA@ 10024244     libucrt:lcidtoname_downlevel.obj
 0002:00004250       ??_C@_1M@NJBEEJNL@?$AAd?$AAe?$AA?9?$AAl?$AAu?$AA?$AA@ 10024250     libucrt:lcidtoname_downlevel.obj
 0002:0000425c       ??_C@_1O@GNNELBAP@?$AAd?$AAi?$AAv?$AA?9?$AAm?$AAv?$AA?$AA@ 1002425c     libucrt:lcidtoname_downlevel.obj
 0002:0000426c       ??_C@_1M@EJLEOGAE@?$AAe?$AAl?$AA?9?$AAg?$AAr?$AA?$AA@ 1002426c     libucrt:lcidtoname_downlevel.obj
 0002:00004278       ??_C@_1M@GMPONJN@?$AAe?$AAn?$AA?9?$AAa?$AAu?$AA?$AA@ 10024278     libucrt:lcidtoname_downlevel.obj
 0002:00004284       ??_C@_1M@NIDIIPGF@?$AAe?$AAn?$AA?9?$AAb?$AAz?$AA?$AA@ 10024284     libucrt:lcidtoname_downlevel.obj
 0002:00004290       ??_C@_1M@JEHMIMFO@?$AAe?$AAn?$AA?9?$AAc?$AAa?$AA?$AA@ 10024290     libucrt:lcidtoname_downlevel.obj
 0002:0000429c       ??_C@_1M@IGMJCDLA@?$AAe?$AAn?$AA?9?$AAc?$AAb?$AA?$AA@ 1002429c     libucrt:lcidtoname_downlevel.obj
 0002:000042a8       ??_C@_1M@BNFIGBKG@?$AAe?$AAn?$AA?9?$AAg?$AAb?$AA?$AA@ 100242a8     libucrt:lcidtoname_downlevel.obj
 0002:000042b4       ??_C@_1M@LKIFDIGP@?$AAe?$AAn?$AA?9?$AAi?$AAe?$AA?$AA@ 100242b4     libucrt:lcidtoname_downlevel.obj
 0002:000042c0       ??_C@_1M@PJKFGCCO@?$AAe?$AAn?$AA?9?$AAj?$AAm?$AA?$AA@ 100242c0     libucrt:lcidtoname_downlevel.obj
 0002:000042cc       ??_C@_1M@KPPKEPBO@?$AAe?$AAn?$AA?9?$AAn?$AAz?$AA?$AA@ 100242cc     libucrt:lcidtoname_downlevel.obj
 0002:000042d8       ??_C@_1M@GMDGLDOB@?$AAe?$AAn?$AA?9?$AAp?$AAh?$AA?$AA@ 100242d8     libucrt:lcidtoname_downlevel.obj
 0002:000042e4       ??_C@_1M@ONGIBJNA@?$AAe?$AAn?$AA?9?$AAt?$AAt?$AA?$AA@ 100242e4     libucrt:lcidtoname_downlevel.obj
 0002:000042f0       ??_C@_1M@LLODPCMM@?$AAe?$AAn?$AA?9?$AAu?$AAs?$AA?$AA@ 100242f0     libucrt:lcidtoname_downlevel.obj
 0002:000042fc       ??_C@_1M@LAKFNPAN@?$AAe?$AAn?$AA?9?$AAz?$AAa?$AA?$AA@ 100242fc     libucrt:lcidtoname_downlevel.obj
 0002:00004308       ??_C@_1M@MFNHNHEO@?$AAe?$AAn?$AA?9?$AAz?$AAw?$AA?$AA@ 10024308     libucrt:lcidtoname_downlevel.obj
 0002:00004314       ??_C@_1M@EJEINPHM@?$AAe?$AAs?$AA?9?$AAa?$AAr?$AA?$AA@ 10024314     libucrt:lcidtoname_downlevel.obj
 0002:00004320       ??_C@_1M@GNKPCCJA@?$AAe?$AAs?$AA?9?$AAb?$AAo?$AA?$AA@ 10024320     libucrt:lcidtoname_downlevel.obj
 0002:0000432c       ??_C@_1M@LEEGFONL@?$AAe?$AAs?$AA?9?$AAc?$AAl?$AA?$AA@ 1002432c     libucrt:lcidtoname_downlevel.obj
 0002:00004338       ??_C@_1M@KGPDPBDF@?$AAe?$AAs?$AA?9?$AAc?$AAo?$AA?$AA@ 10024338     libucrt:lcidtoname_downlevel.obj
 0002:00004344       ??_C@_1M@EIAHOHH@?$AAe?$AAs?$AA?9?$AAc?$AAr?$AA?$AA@ 10024344     libucrt:lcidtoname_downlevel.obj
 0002:00004350       ??_C@_1M@LLPGMBIN@?$AAe?$AAs?$AA?9?$AAd?$AAo?$AA?$AA@ 10024350     libucrt:lcidtoname_downlevel.obj
 0002:0000435c       ??_C@_1M@DKHMKNJA@?$AAe?$AAs?$AA?9?$AAe?$AAc?$AA?$AA@ 1002435c     libucrt:lcidtoname_downlevel.obj
 0002:00004368       ??_C@_1M@GKGFPKAP@?$AAe?$AAs?$AA?9?$AAe?$AAs?$AA?$AA@ 10024368     libucrt:lcidtoname_downlevel.obj
 0002:00004374       ??_C@_1M@LKHKGDLN@?$AAe?$AAs?$AA?9?$AAg?$AAt?$AA?$AA@ 10024374     libucrt:lcidtoname_downlevel.obj
 0002:00004380       ??_C@_1M@HEIIGGJD@?$AAe?$AAs?$AA?9?$AAh?$AAn?$AA?$AA@ 10024380     libucrt:lcidtoname_downlevel.obj
 0002:0000438c       ??_C@_1M@FBDHPPGD@?$AAe?$AAs?$AA?9?$AAm?$AAx?$AA?$AA@ 1002438c     libucrt:lcidtoname_downlevel.obj
 0002:00004398       ??_C@_1M@DPAGLNDH@?$AAe?$AAs?$AA?9?$AAn?$AAi?$AA?$AA@ 10024398     libucrt:lcidtoname_downlevel.obj
 0002:000043a4       ??_C@_1M@MDGOPGDD@?$AAe?$AAs?$AA?9?$AAp?$AAa?$AA?$AA@ 100243a4     libucrt:lcidtoname_downlevel.obj
 0002:000043b0       ??_C@_1M@EMAMGBGE@?$AAe?$AAs?$AA?9?$AAp?$AAe?$AA?$AA@ 100243b0     libucrt:lcidtoname_downlevel.obj
 0002:000043bc       ??_C@_1M@IBMCAOEC@?$AAe?$AAs?$AA?9?$AAp?$AAr?$AA?$AA@ 100243bc     libucrt:lcidtoname_downlevel.obj
 0002:000043c8       ??_C@_1M@FGMDIJED@?$AAe?$AAs?$AA?9?$AAp?$AAy?$AA?$AA@ 100243c8     libucrt:lcidtoname_downlevel.obj
 0002:000043d4       ??_C@_1M@IIDEOLLL@?$AAe?$AAs?$AA?9?$AAs?$AAv?$AA?$AA@ 100243d4     libucrt:lcidtoname_downlevel.obj
 0002:000043e0       ??_C@_1M@GAOBIPA@?$AAe?$AAs?$AA?9?$AAu?$AAy?$AA?$AA@ 100243e0     libucrt:lcidtoname_downlevel.obj
 0002:000043ec       ??_C@_1M@JKFFICHJ@?$AAe?$AAs?$AA?9?$AAv?$AAe?$AA?$AA@ 100243ec     libucrt:lcidtoname_downlevel.obj
 0002:000043f8       ??_C@_1M@PNMLOJDF@?$AAe?$AAt?$AA?9?$AAe?$AAe?$AA?$AA@ 100243f8     libucrt:lcidtoname_downlevel.obj
 0002:00004404       ??_C@_1M@GHHLIKEI@?$AAe?$AAu?$AA?9?$AAe?$AAs?$AA?$AA@ 10024404     libucrt:lcidtoname_downlevel.obj
 0002:00004410       ??_C@_1M@PBNONODE@?$AAf?$AAa?$AA?9?$AAi?$AAr?$AA?$AA@ 10024410     libucrt:lcidtoname_downlevel.obj
 0002:0000441c       ??_C@_1M@JEEHPMIL@?$AAf?$AAi?$AA?9?$AAf?$AAi?$AA?$AA@ 1002441c     libucrt:lcidtoname_downlevel.obj
 0002:00004428       ??_C@_1M@LMDCNDBA@?$AAf?$AAo?$AA?9?$AAf?$AAo?$AA?$AA@ 10024428     libucrt:lcidtoname_downlevel.obj
 0002:00004434       ??_C@_1M@JKEOHLDK@?$AAf?$AAr?$AA?9?$AAb?$AAe?$AA?$AA@ 10024434     libucrt:lcidtoname_downlevel.obj
 0002:00004440       ??_C@_1M@NOHADPMI@?$AAf?$AAr?$AA?9?$AAc?$AAa?$AA?$AA@ 10024440     libucrt:lcidtoname_downlevel.obj
 0002:0000444c       ??_C@_1M@KDHIHAEC@?$AAf?$AAr?$AA?9?$AAc?$AAh?$AA?$AA@ 1002444c     libucrt:lcidtoname_downlevel.obj
 0002:00004458       ??_C@_1M@MMBBFGAK@?$AAf?$AAr?$AA?9?$AAf?$AAr?$AA?$AA@ 10024458     libucrt:lcidtoname_downlevel.obj
 0002:00004464       ??_C@_1M@PAFNENNF@?$AAf?$AAr?$AA?9?$AAl?$AAu?$AA?$AA@ 10024464     libucrt:lcidtoname_downlevel.obj
 0002:00004470       ??_C@_1M@EOHDJGDD@?$AAf?$AAr?$AA?9?$AAm?$AAc?$AA?$AA@ 10024470     libucrt:lcidtoname_downlevel.obj
 0002:0000447c       ??_C@_1M@FAPLLOPF@?$AAg?$AAl?$AA?9?$AAe?$AAs?$AA?$AA@ 1002447c     libucrt:lcidtoname_downlevel.obj
 0002:00004488       ??_C@_1M@FOPBFLOO@?$AAg?$AAu?$AA?9?$AAi?$AAn?$AA?$AA@ 10024488     libucrt:lcidtoname_downlevel.obj
 0002:00004494       ??_C@_1M@KBMCINPM@?$AAh?$AAe?$AA?9?$AAi?$AAl?$AA?$AA@ 10024494     libucrt:lcidtoname_downlevel.obj
 0002:000044a0       ??_C@_1M@BBPHKFPJ@?$AAh?$AAi?$AA?9?$AAi?$AAn?$AA?$AA@ 100244a0     libucrt:lcidtoname_downlevel.obj
 0002:000044ac       ??_C@_1M@PMBNDPHD@?$AAh?$AAr?$AA?9?$AAb?$AAa?$AA?$AA@ 100244ac     libucrt:lcidtoname_downlevel.obj
 0002:000044b8       ??_C@_1M@BPCKOEGE@?$AAh?$AAr?$AA?9?$AAh?$AAr?$AA?$AA@ 100244b8     libucrt:lcidtoname_downlevel.obj
 0002:000044c4       ??_C@_1M@GACBMHKE@?$AAh?$AAu?$AA?9?$AAh?$AAu?$AA?$AA@ 100244c4     libucrt:lcidtoname_downlevel.obj
 0002:000044d0       ??_C@_1M@MILPAJJC@?$AAh?$AAy?$AA?9?$AAa?$AAm?$AA?$AA@ 100244d0     libucrt:lcidtoname_downlevel.obj
 0002:000044dc       ??_C@_1M@BABBICEC@?$AAi?$AAd?$AA?9?$AAi?$AAd?$AA?$AA@ 100244dc     libucrt:lcidtoname_downlevel.obj
 0002:000044e8       ??_C@_1M@BIKNHHPF@?$AAi?$AAs?$AA?9?$AAi?$AAs?$AA?$AA@ 100244e8     libucrt:lcidtoname_downlevel.obj
 0002:000044f4       ??_C@_1M@NMPCJPHE@?$AAi?$AAt?$AA?9?$AAc?$AAh?$AA?$AA@ 100244f4     libucrt:lcidtoname_downlevel.obj
 0002:00004500       ??_C@_1M@GHKGFEDF@?$AAi?$AAt?$AA?9?$AAi?$AAt?$AA?$AA@ 10024500     libucrt:lcidtoname_downlevel.obj
 0002:0000450c       ??_C@_1M@NIEJCJJA@?$AAj?$AAa?$AA?9?$AAj?$AAp?$AA?$AA@ 1002450c     libucrt:lcidtoname_downlevel.obj
 0002:00004518       ??_C@_1M@JILFNBIM@?$AAk?$AAa?$AA?9?$AAg?$AAe?$AA?$AA@ 10024518     libucrt:lcidtoname_downlevel.obj
 0002:00004524       ??_C@_1M@PACPMGPH@?$AAk?$AAk?$AA?9?$AAk?$AAz?$AA?$AA@ 10024524     libucrt:lcidtoname_downlevel.obj
 0002:00004530       ??_C@_1M@IELFGMHA@?$AAk?$AAn?$AA?9?$AAi?$AAn?$AA?$AA@ 10024530     libucrt:lcidtoname_downlevel.obj
 0002:0000453c       ??_C@_1O@IBBJHCH@?$AAk?$AAo?$AAk?$AA?9?$AAi?$AAn?$AA?$AA@ 1002453c     libucrt:lcidtoname_downlevel.obj
 0002:0000454c       ??_C@_1M@DMHAEOGC@?$AAk?$AAo?$AA?9?$AAk?$AAr?$AA?$AA@ 1002454c     libucrt:lcidtoname_downlevel.obj
 0002:00004558       ??_C@_1M@HBAHBIGA@?$AAk?$AAy?$AA?9?$AAk?$AAg?$AA?$AA@ 10024558     libucrt:lcidtoname_downlevel.obj
 0002:00004564       ??_C@_1M@KPMILCJG@?$AAl?$AAt?$AA?9?$AAl?$AAt?$AA?$AA@ 10024564     libucrt:lcidtoname_downlevel.obj
 0002:00004570       ??_C@_1M@BDEKKCA@?$AAl?$AAv?$AA?9?$AAl?$AAv?$AA?$AA@ 10024570     libucrt:lcidtoname_downlevel.obj
 0002:0000457c       ??_C@_1M@ELCKCCJJ@?$AAm?$AAi?$AA?9?$AAn?$AAz?$AA?$AA@ 1002457c     libucrt:lcidtoname_downlevel.obj
 0002:00004588       ??_C@_1M@CBOOLAPA@?$AAm?$AAk?$AA?9?$AAm?$AAk?$AA?$AA@ 10024588     libucrt:lcidtoname_downlevel.obj
 0002:00004594       ??_C@_1M@GPHNBJKN@?$AAm?$AAl?$AA?9?$AAi?$AAn?$AA?$AA@ 10024594     libucrt:lcidtoname_downlevel.obj
 0002:000045a0       ??_C@_1M@PABJILIG@?$AAm?$AAn?$AA?9?$AAm?$AAn?$AA?$AA@ 100245a0     libucrt:lcidtoname_downlevel.obj
 0002:000045ac       ??_C@_1M@FGBKKIPG@?$AAm?$AAr?$AA?9?$AAi?$AAn?$AA?$AA@ 100245ac     libucrt:lcidtoname_downlevel.obj
 0002:000045b8       ??_C@_1M@NDBPDDAL@?$AAm?$AAs?$AA?9?$AAb?$AAn?$AA?$AA@ 100245b8     libucrt:lcidtoname_downlevel.obj
 0002:000045c4       ??_C@_1M@OPIHOOPI@?$AAm?$AAs?$AA?9?$AAm?$AAy?$AA?$AA@ 100245c4     libucrt:lcidtoname_downlevel.obj
 0002:000045d0       ??_C@_1M@PPDBCNFM@?$AAm?$AAt?$AA?9?$AAm?$AAt?$AA?$AA@ 100245d0     libucrt:lcidtoname_downlevel.obj
 0002:000045dc       ??_C@_1M@KDJDKMDD@?$AAn?$AAb?$AA?9?$AAn?$AAo?$AA?$AA@ 100245dc     libucrt:lcidtoname_downlevel.obj
 0002:000045e8       ??_C@_1M@KFCFLMJP@?$AAn?$AAl?$AA?9?$AAb?$AAe?$AA?$AA@ 100245e8     libucrt:lcidtoname_downlevel.obj
 0002:000045f4       ??_C@_1M@KPOPDDGO@?$AAn?$AAl?$AA?9?$AAn?$AAl?$AA?$AA@ 100245f4     libucrt:lcidtoname_downlevel.obj
 0002:00004600       ??_C@_1M@LJKPEMLN@?$AAn?$AAn?$AA?9?$AAn?$AAo?$AA?$AA@ 10024600     libucrt:lcidtoname_downlevel.obj
 0002:0000460c       ??_C@_1M@BDGHHBFL@?$AAn?$AAs?$AA?9?$AAz?$AAa?$AA?$AA@ 1002460c     libucrt:lcidtoname_downlevel.obj
 0002:00004618       ??_C@_1M@IDEHOAP@?$AAp?$AAa?$AA?9?$AAi?$AAn?$AA?$AA@ 10024618     libucrt:lcidtoname_downlevel.obj
 0002:00004624       ??_C@_1M@HDBKGOGH@?$AAp?$AAl?$AA?9?$AAp?$AAl?$AA?$AA@ 10024624     libucrt:lcidtoname_downlevel.obj
 0002:00004630       ??_C@_1M@LJLLCMEH@?$AAp?$AAt?$AA?9?$AAb?$AAr?$AA?$AA@ 10024630     libucrt:lcidtoname_downlevel.obj
 0002:0000463c       ??_C@_1M@NCMONAAL@?$AAp?$AAt?$AA?9?$AAp?$AAt?$AA?$AA@ 1002463c     libucrt:lcidtoname_downlevel.obj
 0002:00004648       ??_C@_1O@EAKMAJDN@?$AAq?$AAu?$AAz?$AA?9?$AAb?$AAo?$AA?$AA@ 10024648     libucrt:lcidtoname_downlevel.obj
 0002:00004658       ??_C@_1O@BHHPIGDN@?$AAq?$AAu?$AAz?$AA?9?$AAe?$AAc?$AA?$AA@ 10024658     libucrt:lcidtoname_downlevel.obj
 0002:00004668       ??_C@_1O@GBAPEKMJ@?$AAq?$AAu?$AAz?$AA?9?$AAp?$AAe?$AA?$AA@ 10024668     libucrt:lcidtoname_downlevel.obj
 0002:00004678       ??_C@_1M@CLGLEFBO@?$AAr?$AAo?$AA?9?$AAr?$AAo?$AA?$AA@ 10024678     libucrt:lcidtoname_downlevel.obj
 0002:00004684       ??_C@_1M@CEEDODME@?$AAr?$AAu?$AA?9?$AAr?$AAu?$AA?$AA@ 10024684     libucrt:lcidtoname_downlevel.obj
 0002:00004690       ??_C@_1M@HPKKKMPP@?$AAs?$AAa?$AA?9?$AAi?$AAn?$AA?$AA@ 10024690     libucrt:lcidtoname_downlevel.obj
 0002:0000469c       ??_C@_1M@BKMAIGOJ@?$AAs?$AAe?$AA?9?$AAf?$AAi?$AA?$AA@ 1002469c     libucrt:lcidtoname_downlevel.obj
 0002:000046a8       ??_C@_1M@NDPIFLFI@?$AAs?$AAe?$AA?9?$AAn?$AAo?$AA?$AA@ 100246a8     libucrt:lcidtoname_downlevel.obj
 0002:000046b4       ??_C@_1M@DANKKHJ@?$AAs?$AAe?$AA?9?$AAs?$AAe?$AA?$AA@ 100246b4     libucrt:lcidtoname_downlevel.obj
 0002:000046c0       ??_C@_1M@PNBLONPJ@?$AAs?$AAk?$AA?9?$AAs?$AAk?$AA?$AA@ 100246c0     libucrt:lcidtoname_downlevel.obj
 0002:000046cc       ??_C@_1M@LFMODOAL@?$AAs?$AAl?$AA?9?$AAs?$AAi?$AA?$AA@ 100246cc     libucrt:lcidtoname_downlevel.obj
 0002:000046d8       ??_C@_1O@DFKOMPG@?$AAs?$AAm?$AAa?$AA?9?$AAn?$AAo?$AA?$AA@ 100246d8     libucrt:lcidtoname_downlevel.obj
 0002:000046e8       ??_C@_1O@NDKPBNNH@?$AAs?$AAm?$AAa?$AA?9?$AAs?$AAe?$AA?$AA@ 100246e8     libucrt:lcidtoname_downlevel.obj
 0002:000046f8       ??_C@_1O@PLLKBHAB@?$AAs?$AAm?$AAj?$AA?9?$AAn?$AAo?$AA?$AA@ 100246f8     libucrt:lcidtoname_downlevel.obj
 0002:00004708       ??_C@_1O@CLEPOGCA@?$AAs?$AAm?$AAj?$AA?9?$AAs?$AAe?$AA?$AA@ 10024708     libucrt:lcidtoname_downlevel.obj
 0002:00004718       ??_C@_1O@DLGJGKMK@?$AAs?$AAm?$AAn?$AA?9?$AAf?$AAi?$AA?$AA@ 10024718     libucrt:lcidtoname_downlevel.obj
 0002:00004728       ??_C@_1O@OJDJGAJC@?$AAs?$AAm?$AAs?$AA?9?$AAf?$AAi?$AA?$AA@ 10024728     libucrt:lcidtoname_downlevel.obj
 0002:00004738       ??_C@_1M@BOFOGHPB@?$AAs?$AAq?$AA?9?$AAa?$AAl?$AA?$AA@ 10024738     libucrt:lcidtoname_downlevel.obj
 0002:00004744       ??_C@_1BG@LJBBIPGB@?$AAs?$AAr?$AA?9?$AAb?$AAa?$AA?9?$AAc?$AAy?$AAr?$AAl?$AA?$AA@ 10024744     libucrt:lcidtoname_downlevel.obj
 0002:0000475c       ??_C@_1BG@JLBENFOE@?$AAs?$AAr?$AA?9?$AAb?$AAa?$AA?9?$AAl?$AAa?$AAt?$AAn?$AA?$AA@ 1002475c     libucrt:lcidtoname_downlevel.obj
 0002:00004774       ??_C@_1BG@KODPNHE@?$AAs?$AAr?$AA?9?$AAs?$AAp?$AA?9?$AAc?$AAy?$AAr?$AAl?$AA?$AA@ 10024774     libucrt:lcidtoname_downlevel.obj
 0002:0000478c       ??_C@_1BG@CIOGKHPB@?$AAs?$AAr?$AA?9?$AAs?$AAp?$AA?9?$AAl?$AAa?$AAt?$AAn?$AA?$AA@ 1002478c     libucrt:lcidtoname_downlevel.obj
 0002:000047a4       ??_C@_1M@NGFJLMAC@?$AAs?$AAv?$AA?9?$AAf?$AAi?$AA?$AA@ 100247a4     libucrt:lcidtoname_downlevel.obj
 0002:000047b0       ??_C@_1M@MPJEJAJC@?$AAs?$AAv?$AA?9?$AAs?$AAe?$AA?$AA@ 100247b0     libucrt:lcidtoname_downlevel.obj
 0002:000047bc       ??_C@_1M@MPNDHLFK@?$AAs?$AAw?$AA?9?$AAk?$AAe?$AA?$AA@ 100247bc     libucrt:lcidtoname_downlevel.obj
 0002:000047c8       ??_C@_1O@KOHBJJI@?$AAs?$AAy?$AAr?$AA?9?$AAs?$AAy?$AA?$AA@ 100247c8     libucrt:lcidtoname_downlevel.obj
 0002:000047d8       ??_C@_1M@LDCEFHA@?$AAt?$AAa?$AA?9?$AAi?$AAn?$AA?$AA@ 100247d8     libucrt:lcidtoname_downlevel.obj
 0002:000047e4       ??_C@_1M@CNJOFAK@?$AAt?$AAe?$AA?9?$AAi?$AAn?$AA?$AA@ 100247e4     libucrt:lcidtoname_downlevel.obj
 0002:000047f0       ??_C@_1M@GNAECACD@?$AAt?$AAh?$AA?9?$AAt?$AAh?$AA?$AA@ 100247f0     libucrt:lcidtoname_downlevel.obj
 0002:000047fc       ??_C@_1M@CHBIHOJO@?$AAt?$AAn?$AA?9?$AAz?$AAa?$AA?$AA@ 100247fc     libucrt:lcidtoname_downlevel.obj
 0002:00004808       ??_C@_1M@GCCMIGPJ@?$AAt?$AAr?$AA?9?$AAt?$AAr?$AA?$AA@ 10024808     libucrt:lcidtoname_downlevel.obj
 0002:00004814       ??_C@_1M@CELMCNBK@?$AAt?$AAt?$AA?9?$AAr?$AAu?$AA?$AA@ 10024814     libucrt:lcidtoname_downlevel.obj
 0002:00004820       ??_C@_1M@KLMCELGA@?$AAu?$AAk?$AA?9?$AAu?$AAa?$AA?$AA@ 10024820     libucrt:lcidtoname_downlevel.obj
 0002:0000482c       ??_C@_1M@EPAJJAJF@?$AAu?$AAr?$AA?9?$AAp?$AAk?$AA?$AA@ 1002482c     libucrt:lcidtoname_downlevel.obj
 0002:00004838       ??_C@_1BG@GEGPMCDJ@?$AAu?$AAz?$AA?9?$AAu?$AAz?$AA?9?$AAc?$AAy?$AAr?$AAl?$AA?$AA@ 10024838     libucrt:lcidtoname_downlevel.obj
 0002:00004850       ??_C@_1BG@EGGKJILM@?$AAu?$AAz?$AA?9?$AAu?$AAz?$AA?9?$AAl?$AAa?$AAt?$AAn?$AA?$AA@ 10024850     libucrt:lcidtoname_downlevel.obj
 0002:00004868       ??_C@_1M@GFOCLFF@?$AAv?$AAi?$AA?9?$AAv?$AAn?$AA?$AA@ 10024868     libucrt:lcidtoname_downlevel.obj
 0002:00004874       ??_C@_1M@CPAMEDFI@?$AAx?$AAh?$AA?9?$AAz?$AAa?$AA?$AA@ 10024874     libucrt:lcidtoname_downlevel.obj
 0002:00004880       ??_C@_1O@EBKIFIGN@?$AAz?$AAh?$AA?9?$AAc?$AAh?$AAs?$AA?$AA@ 10024880     libucrt:lcidtoname_downlevel.obj
 0002:00004890       ??_C@_1O@NMHPGANE@?$AAz?$AAh?$AA?9?$AAc?$AAh?$AAt?$AA?$AA@ 10024890     libucrt:lcidtoname_downlevel.obj
 0002:000048a0       ??_C@_1M@LPINJOMC@?$AAz?$AAh?$AA?9?$AAc?$AAn?$AA?$AA@ 100248a0     libucrt:lcidtoname_downlevel.obj
 0002:000048ac       ??_C@_1M@OCJEJODD@?$AAz?$AAh?$AA?9?$AAh?$AAk?$AA?$AA@ 100248ac     libucrt:lcidtoname_downlevel.obj
 0002:000048b8       ??_C@_1M@DNDLJINH@?$AAz?$AAh?$AA?9?$AAm?$AAo?$AA?$AA@ 100248b8     libucrt:lcidtoname_downlevel.obj
 0002:000048c4       ??_C@_1M@MBFDNDND@?$AAz?$AAh?$AA?9?$AAs?$AAg?$AA?$AA@ 100248c4     libucrt:lcidtoname_downlevel.obj
 0002:000048d0       ??_C@_1M@IMEPLEPE@?$AAz?$AAh?$AA?9?$AAt?$AAw?$AA?$AA@ 100248d0     libucrt:lcidtoname_downlevel.obj
 0002:000048dc       ??_C@_1M@BBGHNHJP@?$AAz?$AAu?$AA?9?$AAz?$AAa?$AA?$AA@ 100248dc     libucrt:lcidtoname_downlevel.obj
 0002:000048e8       ?large_power_data@?1??multiply_by_power_of_ten@__crt_strtox@@YA_NAAUbig_integer@2@I@Z@4QBIB 100248e8     libucrt:cfout.obj
 0002:000051f0       ?large_power_indices@?1??multiply_by_power_of_ten@__crt_strtox@@YA_NAAUbig_integer@2@I@Z@4QBUunpack_index@?1??12@YA_N0I@Z@B 100251f0     libucrt:cfout.obj
 0002:00005288       ?small_powers_of_ten@?6??multiply_by_power_of_ten@__crt_strtox@@YA_NAAUbig_integer@2@I@Z@4QBIB 10025288     libucrt:cfout.obj
 0002:000052ac       ??_C@_01GBGANLPD@0?$AA@    100252ac     libucrt:cfout.obj
 0002:000052b0       ??_C@_05DNEBIAHO@1?$CDINF?$AA@ 100252b0     libucrt:cfout.obj
 0002:000052b8       ??_C@_06IMKFLFPG@1?$CDQNAN?$AA@ 100252b8     libucrt:cfout.obj
 0002:000052c0       ??_C@_06PGGFOGJG@1?$CDSNAN?$AA@ 100252c0     libucrt:cfout.obj
 0002:000052c8       ??_C@_05PHHOCPM@1?$CDIND?$AA@ 100252c8     libucrt:cfout.obj
 0002:000052d0       ??_C@_1BA@BALFACEM@?$AAC?$AAO?$AAN?$AAO?$AAU?$AAT?$AA$?$AA?$AA@ 100252d0     libucrt:initcon.obj
 0002:00005440       __infinity                 10025440     libucrt:87tran.obj
 0002:0000544a       __minfinity                1002544a     libucrt:87tran.obj
 0002:00005454       __logemax                  10025454     libucrt:87tran.obj
 0002:0000547a       __OP_EXPjmptab             1002547a     libucrt:87tran.obj
 0002:000054a0       __indefinite               100254a0     libucrt:87disp.obj
 0002:000054aa       __piby2                    100254aa     libucrt:87disp.obj
 0002:000054b4       __piby4                    100254b4     libucrt:87disp.obj
 0002:000054e8       __DEFAULT_CW_in_mem        100254e8     libucrt:common.obj
 0002:000054ea       __pi_by_2_to_61            100254ea     libucrt:common.obj
 0002:00005524       ??_C@_05HGHHAHAP@log10?$AA@ 10025524     libucrt:libm_error.obj
 0002:0000552c       ??_C@_03KHJOGHMM@exp?$AA@  1002552c     libucrt:libm_error.obj
 0002:00005530       ??_C@_03JGHBODFD@pow?$AA@  10025530     libucrt:libm_error.obj
 0002:00005534       ??_C@_04FIHNOPOL@asin?$AA@ 10025534     libucrt:libm_error.obj
 0002:0000553c       ??_C@_04PDIFKINK@acos?$AA@ 1002553c     libucrt:libm_error.obj
 0002:00005544       ??_C@_04EIAKFFMI@sqrt?$AA@ 10025544     libucrt:libm_error.obj
 0002:00005570       ___acrt_log10_table_t      10025570     libucrt:log10_tables.obj
 0002:00005980       ___acrt_log10_table_cb     10025980     libucrt:log10_tables.obj
 0002:00005d90       __real@3fe0000000000000    10025d90     libucrt:powhlp.obj
 0002:00005d98       ??_C@_04FJHINJAO@tanh?$AA@ 10025d98     libucrt:fpexcept.obj
 0002:00005da0       ??_C@_04MLLJIGOK@atan?$AA@ 10025da0     libucrt:fpexcept.obj
 0002:00005da8       ??_C@_05KNGEOGJB@atan2?$AA@ 10025da8     libucrt:fpexcept.obj
 0002:00005db0       ??_C@_03BLEJJJBH@sin?$AA@  10025db0     libucrt:fpexcept.obj
 0002:00005db4       ??_C@_03LALBNOCG@cos?$AA@  10025db4     libucrt:fpexcept.obj
 0002:00005db8       ??_C@_03IIINPABG@tan?$AA@  10025db8     libucrt:fpexcept.obj
 0002:00005dbc       ??_C@_04GFPJNGEK@ceil?$AA@ 10025dbc     libucrt:fpexcept.obj
 0002:00005dc4       ??_C@_05PBJFFIGL@floor?$AA@ 10025dc4     libucrt:fpexcept.obj
 0002:00005dcc       ??_C@_04ODHECPBC@fabs?$AA@ 10025dcc     libucrt:fpexcept.obj
 0002:00005dd4       ??_C@_04EHEDPDJG@modf?$AA@ 10025dd4     libucrt:fpexcept.obj
 0002:00005ddc       ??_C@_05CEJMAHNP@ldexp?$AA@ 10025ddc     libucrt:fpexcept.obj
 0002:00005de4       ??_C@_05KBKMEMPO@_cabs?$AA@ 10025de4     libucrt:fpexcept.obj
 0002:00005dec       ??_C@_06MEIMCGCF@_hypot?$AA@ 10025dec     libucrt:fpexcept.obj
 0002:00005df4       ??_C@_04KEPJIHGP@fmod?$AA@ 10025df4     libucrt:fpexcept.obj
 0002:00005dfc       ??_C@_05GKKHEGJL@frexp?$AA@ 10025dfc     libucrt:fpexcept.obj
 0002:00005e04       ??_C@_03MJLDFKDL@_y0?$AA@  10025e04     libucrt:fpexcept.obj
 0002:00005e08       ??_C@_03NAKIGLHK@_y1?$AA@  10025e08     libucrt:fpexcept.obj
 0002:00005e0c       ??_C@_03ONILCKOB@_yn?$AA@  10025e0c     libucrt:fpexcept.obj
 0002:00005e10       ??_C@_05JGDBENOH@_logb?$AA@ 10025e10     libucrt:fpexcept.obj
 0002:00005e18       ??_C@_0L@KDOEJCKC@_nextafter?$AA@ 10025e18     libucrt:fpexcept.obj
 0002:00005f10       ??_C@_04COOMCNPB@sinh?$AA@ 10025f10     libucrt:fpexcept.obj
 0002:00005f18       ??_C@_04HPJJNFIM@cosh?$AA@ 10025f18     libucrt:fpexcept.obj
 0002:00005f20       __d_inf                    10025f20     libucrt:util.obj
 0002:00005f28       __d_max                    10025f28     libucrt:util.obj
 0002:00005f30       __d_mzero                  10025f30     libucrt:util.obj
 0002:00005f38       ??_C@_1BK@DBDEIDLH@?$AAK?$AAE?$AAR?$AAN?$AAE?$AAL?$AA3?$AA2?$AA?4?$AAD?$AAL?$AAL?$AA?$AA@ 10025f38     DelayImp:delayhlp.obj
 0002:00005f54       ??_C@_0BI@OMNLIJDB@AcquireSRWLockExclusive?$AA@ 10025f54     DelayImp:delayhlp.obj
 0002:00005f6c       ??_C@_0BI@HMIEPCNJ@ReleaseSRWLockExclusive?$AA@ 10025f6c     DelayImp:delayhlp.obj
 0002:00005f88       __load_config_used         10025f88     LIBCMT:loadcfg.obj
 0002:00005fe4       ??_C@_0CK@JCPCLECK@external?5memory?5allocation?5limit@ 10025fe4     WebWorkerThreads.obj
 0002:00006010       ??_C@_02GMHACPFF@?$CFu?$AA@ 10026010     WebWorkerThreads.obj
 0002:00006018       ??_C@_1IC@DECOOKDH@?$AAC?$AA?3?$AA?2?$AAU?$AAs?$AAe?$AAr?$AAs?$AA?2?$AAB?$AAa?$AAs?$AAt?$AAi?$AAe?$AAn?$AA?2?$AA?4?$AAn?$AAo?$AAd?$AAe?$AA?9?$AAg?$AAy?$AAp?$AA?2?$AA4?$AA?4?$AA2?$AA?4?$AA3@ 10026018     WebWorkerThreads.obj
 0002:0000609c       ??_C@_1DG@OKCGPKIB@?$AAp?$AAe?$AAr?$AAs?$AAi?$AAs?$AAt?$AAe?$AAn?$AAt?$AA?$CI?$AA?$CJ?$AA?4?$AAI?$AAs?$AAN?$AAe?$AAa?$AAr?$AAD?$AAe?$AAa?$AAt?$AAh?$AA?$CI?$AA?$CJ?$AA?$AA@ 1002609c     WebWorkerThreads.obj
 0002:000060d4       ??_C@_1DA@FBGAEOIO@?$AA?$CB?$AAp?$AAe?$AAr?$AAs?$AAi?$AAs?$AAt?$AAe?$AAn?$AAt?$AA?$CI?$AA?$CJ?$AA?4?$AAI?$AAs?$AAE?$AAm?$AAp?$AAt?$AAy?$AA?$CI?$AA?$CJ?$AA?$AA@ 100260d4     WebWorkerThreads.obj
 0002:00006104       ??_C@_1CO@JCKLEFMA@?$AA?$CB?$AAp?$AAe?$AAr?$AAs?$AAi?$AAs?$AAt?$AAe?$AAn?$AAt?$AA?$CI?$AA?$CJ?$AA?4?$AAI?$AAs?$AAW?$AAe?$AAa?$AAk?$AA?$CI?$AA?$CJ?$AA?$AA@ 10026104     WebWorkerThreads.obj
 0002:00006134       ??_C@_1BE@GMLLOIPJ@?$AAr?$AAe?$AAf?$AAs?$AA_?$AA?5?$AA?$DO?$AA?5?$AA0?$AA?$AA@ 10026134     WebWorkerThreads.obj
 0002:00006148       ??_C@_1CC@GBFLAAPF@?$AAw?$AAr?$AAa?$AAp?$AA?9?$AA?$DO?$AAr?$AAe?$AAf?$AAs?$AA_?$AA?5?$AA?$DN?$AA?$DN?$AA?5?$AA0?$AA?$AA@ 10026148     WebWorkerThreads.obj
 0002:0000616c       ??_C@_1DI@ELDBKNAK@?$AAw?$AAr?$AAa?$AAp?$AA?9?$AA?$DO?$AAh?$AAa?$AAn?$AAd?$AAl?$AAe?$AA_?$AA?4?$AAI?$AAs?$AAN?$AAe?$AAa?$AAr?$AAD?$AAe?$AAa?$AAt?$AAh?$AA?$CI?$AA?$CJ?$AA?$AA@ 1002616c     WebWorkerThreads.obj
 0002:000061a8       ??_C@_1IM@GACIBGHJ@?$AAd?$AAa?$AAt?$AAa?$AA?4?$AAG?$AAe?$AAt?$AAV?$AAa?$AAl?$AAu?$AAe?$AA?$CI?$AA?$CJ?$AA?5?$AA?$DN?$AA?$DN?$AA?5?$AAv?$AA8?$AA?3?$AA?3?$AAL?$AAo?$AAc?$AAa?$AAl?$AA?$DM?$AAv?$AA8?$AA?3@ 100261a8     WebWorkerThreads.obj
 0002:00006238       ??_C@_1FI@HKGMCPMH@?$AAc?$AA?3?$AA?2?$AAt?$AAo?$AAp?$AAb?$AAa?$AAr?$AA?2?$AAi?$AAm?$AAp?$AAr?$AAe?$AAs?$AAs?$AAi?$AAo?$AAn?$AA?2?$AAn?$AAo?$AAd?$AAe?$AA_?$AAm?$AAo?$AAd?$AAu?$AAl?$AAe@ 10026238     WebWorkerThreads.obj
 0002:00006290       ??_C@_1FM@LOELJOFK@?$AAs?$AAi?$AAz?$AAe?$AA?5?$AA?$DM?$AA?$DN?$AA?5?$AAi?$AAm?$AAp?$AA?3?$AA?3?$AAk?$AAM?$AAa?$AAx?$AAL?$AAe?$AAn?$AAg?$AAt?$AAh?$AA?5?$AA?$CG?$AA?$CG?$AA?5?$AA?$CC?$AAt?$AAo?$AAo?$AA?5@ 10026290     WebWorkerThreads.obj
 0002:000062ec       ??_C@_0CD@KLMCKJGL@key?5?$CFs?5must?5not?5contain?5null?5byt@ 100262ec     WebWorkerThreads.obj
 0002:00006310       ??_C@_0BP@CAGHNLOH@key?5?$CFs?5must?5not?5start?5with?5?8$?8?$AA@ 10026310     WebWorkerThreads.obj
 0002:00006330       ??_C@_0BM@LKINBHCB@key?5?$CFs?5must?5not?5contain?5?8?4?8?$AA@ 10026330     WebWorkerThreads.obj
 0002:0000634c       ??_C@_0CE@GIGLFLEI@Missing?5end?5of?5document?5marker?5?8@ 1002634c     WebWorkerThreads.obj
 0002:00006370       ??_C@_0CH@NJGEHNPF@Child?5document?5exceeds?5parent?8s?5@ 10026370     WebWorkerThreads.obj
 0002:00006398       ??_C@_0BG@FPIHBCPI@Invalid?5key?5for?5array?$AA@ 10026398     WebWorkerThreads.obj
 0002:000063b0       ??_C@_0CI@OKMCLBNL@Bad?5BSON?3?5Document?5is?5less?5than?5@ 100263b0     WebWorkerThreads.obj
 0002:000063d8       ??_C@_0CD@MMHCGCFM@Bad?5BSON?5Document?3?5illegal?5CStri@ 100263d8     WebWorkerThreads.obj
 0002:00006400       ??_C@_0EB@BJOKDBFK@Bad?5BSON?5Document?3?5Serialize?5con@ 10026400     WebWorkerThreads.obj
 0002:00006444       ??_C@_0CO@JEFHBMDG@Bad?5BSON?3?5Array?5Document?5is?5less@ 10026444     WebWorkerThreads.obj
 0002:00006474       ??_C@_0DO@HADGHAOK@Bad?5BSON?5Array?3?5Serialize?5consum@ 10026474     WebWorkerThreads.obj
 0002:000064b4       ??_C@_0BI@GMAEEKGD@Unhandled?5BSON?5Type?3?5?$CFd?$AA@ 100264b4     WebWorkerThreads.obj
 0002:000064cc       ??_C@_09BNDOHJJA@_bsontype?$AA@ 100264cc     WebWorkerThreads.obj
 0002:000064d8       ??_C@_04GKMHEKLF@low_?$AA@ 100264d8     WebWorkerThreads.obj
 0002:000064e0       ??_C@_05ODKONCOO@high_?$AA@ 100264e0     WebWorkerThreads.obj
 0002:000064e8       ??_C@_02EGCJHIOB@id?$AA@   100264e8     WebWorkerThreads.obj
 0002:000064ec       ??_C@_08OAGMDKAF@position?$AA@ 100264ec     WebWorkerThreads.obj
 0002:000064f8       ??_C@_08IDIHDCPA@sub_type?$AA@ 100264f8     WebWorkerThreads.obj
 0002:00006504       ??_C@_06HOHPNJLC@buffer?$AA@ 10026504     WebWorkerThreads.obj
 0002:0000650c       ??_C@_05MFEJDJP@value?$AA@ 1002650c     WebWorkerThreads.obj
 0002:00006514       ??_C@_04LBBBCMNL@$ref?$AA@ 10026514     WebWorkerThreads.obj
 0002:0000651c       ??_C@_03LHHMEGIG@$id?$AA@  1002651c     WebWorkerThreads.obj
 0002:00006520       ??_C@_03OJPOHCFD@$db?$AA@  10026520     WebWorkerThreads.obj
 0002:00006524       ??_C@_09KPMGAFNI@namespace?$AA@ 10026524     WebWorkerThreads.obj
 0002:00006530       ??_C@_02BIKLEMDE@db?$AA@   10026530     WebWorkerThreads.obj
 0002:00006534       ??_C@_03PLGJJJLK@oid?$AA@  10026534     WebWorkerThreads.obj
 0002:00006538       ??_C@_04NDFOBODE@code?$AA@ 10026538     WebWorkerThreads.obj
 0002:00006540       ??_C@_05DCCHDMEJ@scope?$AA@ 10026540     WebWorkerThreads.obj
 0002:00006548       ??_C@_06GNKBGKCF@toBSON?$AA@ 10026548     WebWorkerThreads.obj
 0002:00006550       ??_C@_04KPGOEBLF@Long?$AA@ 10026550     WebWorkerThreads.obj
 0002:00006558       ??_C@_08CMHNALBL@ObjectID?$AA@ 10026558     WebWorkerThreads.obj
 0002:00006564       ??_C@_06JCOMDNII@Binary?$AA@ 10026564     WebWorkerThreads.obj
 0002:0000656c       ??_C@_04BCJPDBDA@Code?$AA@ 1002656c     WebWorkerThreads.obj
 0002:00006574       ??_C@_05OEHIBPMM@DBRef?$AA@ 10026574     WebWorkerThreads.obj
 0002:0000657c       ??_C@_06CGMNKLGA@Symbol?$AA@ 1002657c     WebWorkerThreads.obj
 0002:00006584       ??_C@_06NCCPDBPF@Double?$AA@ 10026584     WebWorkerThreads.obj
 0002:0000658c       ??_C@_09KDGENIOP@Timestamp?$AA@ 1002658c     WebWorkerThreads.obj
 0002:00006598       ??_C@_06LCECLHMO@MinKey?$AA@ 10026598     WebWorkerThreads.obj
 0002:000065a0       ??_C@_06LBLBFHIB@MaxKey?$AA@ 100265a0     WebWorkerThreads.obj
 0002:000065a8       ??_C@_0BJ@BPGENBPL@toBSON?5is?5not?5a?5function?$AA@ 100265a8     WebWorkerThreads.obj
 0002:000065c4       ??_C@_0CJ@IOIJGPAE@toBSON?5function?5did?5not?5return?5a@ 100265c4     WebWorkerThreads.obj
 0002:000065f0       ??_C@_03OFAPEBGM@?$CFs?6?$AA@ 100265f0     WebWorkerThreads.obj
 0002:000065f4       ??_C@_0L@DFPOBGBF@?$CFs?3?$CFi?3?5?$CFs?6?$AA@ 100265f4     WebWorkerThreads.obj
 0002:00006600       ??_C@_02JDPG@rb?$AA@       10026600     WebWorkerThreads.obj
 0002:00006604       ??_C@_0CE@COPHJGPI@Error?3?5readfile?5open?5failed?4?5?$CFd?5@ 10026604     WebWorkerThreads.obj
 0002:00006628       ??_C@_0CE@GMCMIFJP@Error?3?5readfile?5read?5failed?4?5?$CFd?5@ 10026628     WebWorkerThreads.obj
 0002:0000664c       ??_C@_0O@KAMAIBLE@?$CFs?$FLFunction?$FN?6?$AA@ 1002664c     WebWorkerThreads.obj
 0002:0000665c       ??_C@_0M@BFMCBAGI@?$CFs?$HLObject?$HN?6?$AA@ 1002665c     WebWorkerThreads.obj
 0002:00006668       ??_C@_06LOHDKCDH@?$CFs?$CFs?3?5?$AA@ 10026668     WebWorkerThreads.obj
 0002:00006670       ??_C@_05JMJKDBEJ@?$CFs?$CFs?6?$AA@ 10026670     WebWorkerThreads.obj
 0002:00006678       ??_C@_0N@BGEIFAPI@?$CFs?$HL?1Object?$HN?6?$AA@ 10026678     WebWorkerThreads.obj
 0002:00006688       ??_C@_0L@HKAOMHIP@?$CFs?$FLArray?$FN?6?$AA@ 10026688     WebWorkerThreads.obj
 0002:00006694       ??_C@_06HDLNMNBB@?$CFs?$CFd?3?5?$AA@ 10026694     WebWorkerThreads.obj
 0002:0000669c       ??_C@_01EEMJAFIK@?6?$AA@   1002669c     WebWorkerThreads.obj
 0002:000066a0       ??_C@_0M@ILAANKHO@?$CFs?$FL?1Array?$FN?6?$AA@ 100266a0     WebWorkerThreads.obj
 0002:000066b0       ??_C@_0DAJ@IPIOFNOC@?$CI?6function?5DispatchEvents?$CIthread@ 100266b0     WebWorkerThreads.obj
 0002:000069c0       ??_C@_0BMG@CCKBPCII@?6var?5onmessage?0this$?$DNthis?$DLfuncti@ 100269c0     WebWorkerThreads.obj
 0002:00006b88       ??_C@_0JJG@EAHGLIFD@?$CI?6function?5createPool?$CIn?$CJ?$HLvar?5T?0p@ 10026b88     WebWorkerThreads.obj
 0002:00007520       ??_C@_0DGK@HBGLCPBA@?$CI?6function?5Worker?$CI?$CJ?$HLvar?5Threads?$DL@ 10027520     WebWorkerThreads.obj
 0002:00007890       ??_C@_0BIJ@PKCHNBCC@?$CI?6function?5ThreadNextTick?$CI?$CJ?$HLfunc@ 10027890     WebWorkerThreads.obj
 0002:00007a1c       ??_C@_0N@MAJKHLHO@readFileSync?$AA@ 10027a1c     WebWorkerThreads.obj
 0002:00007a2c       ??_C@_0L@NCAPKJIF@native_fs_?$AA@ 10027a2c     WebWorkerThreads.obj
 0002:00007a38       ??_C@_03MGHMBJCF@log?$AA@  10027a38     WebWorkerThreads.obj
 0002:00007a3c       ??_C@_05KKCIMGE@error?$AA@ 10027a3c     WebWorkerThreads.obj
 0002:00007a44       ??_C@_07PMJAFAE@console?$AA@ 10027a44     WebWorkerThreads.obj
 0002:00007a4c       ??_C@_04PJDNGLKJ@self?$AA@ 10027a4c     WebWorkerThreads.obj
 0002:00007a54       ??_C@_06FJKEMHGD@global?$AA@ 10027a54     WebWorkerThreads.obj
 0002:00007a5c       ??_C@_04MLAEFCDK@puts?$AA@ 10027a5c     WebWorkerThreads.obj
 0002:00007a64       ??_C@_05IJDJACGD@print?$AA@ 10027a64     WebWorkerThreads.obj
 0002:00007a6c       ??_C@_0M@FNCHPFPH@postMessage?$AA@ 10027a6c     WebWorkerThreads.obj
 0002:00007a78       ??_C@_0M@CNNLKLKH@__postError?$AA@ 10027a78     WebWorkerThreads.obj
 0002:00007a84       ??_C@_06FJHNOCKE@thread?$AA@ 10027a84     WebWorkerThreads.obj
 0002:00007a8c       ??_C@_04KNBGJDFM@emit?$AA@ 10027a8c     WebWorkerThreads.obj
 0002:00007a94       ??_C@_04DNLLFIPD@_ntq?$AA@ 10027a94     WebWorkerThreads.obj
 0002:00007a9c       ??_C@_0DH@KDHGCJFF@thread?4destroy?$CI?$CJ?3?5the?5receiver?5m@ 10027a9c     WebWorkerThreads.obj
 0002:00007ad4       ??_C@_0DE@DKLHOMNI@thread?4eval?$CIprogram?5?$FL?0callback?$FN?$CJ@ 10027ad4     WebWorkerThreads.obj
 0002:00007b08       ??_C@_0DE@CAKPDCFJ@thread?4eval?$CI?$CJ?3?5the?5receiver?5must@ 10027b08     WebWorkerThreads.obj
 0002:00007b3c       ??_C@_0BL@EHFKNDLL@Error?5opening?5the?5file?5?$CFs?6?$AA@ 10027b3c     WebWorkerThreads.obj
 0002:00007b58       ??_C@_0BL@JEMOPMFD@Error?5reading?5the?5file?5?$CFs?6?$AA@ 10027b58     WebWorkerThreads.obj
 0002:00007b74       ??_C@_0DF@FAKBEAEI@thread?4load?$CIfilename?5?$FL?0callback?$FN@ 10027b74     WebWorkerThreads.obj
 0002:00007bac       ??_C@_0DE@PJEMAONF@thread?4load?$CI?$CJ?3?5the?5receiver?5must@ 10027bac     WebWorkerThreads.obj
 0002:00007be0       ??_C@_0DE@FEFGNDIP@thread?4emit?$CI?$CJ?3?5the?5receiver?5must@ 10027be0     WebWorkerThreads.obj
 0002:00007c14       ??_C@_07ONPBMBOP@message?$AA@ 10027c14     WebWorkerThreads.obj
 0002:00007c1c       ??_C@_0CE@GDGBOKLD@create?$CI?$CJ?3?5error?5in?5pthread_creat@ 10027c1c     WebWorkerThreads.obj
 0002:00007c40       ??_C@_06HBNONAG@create?$AA@ 10027c40     WebWorkerThreads.obj
 0002:00007c48       ??_C@_0L@DEMMGFLI@createPool?$AA@ 10027c48     WebWorkerThreads.obj
 0002:00007c54       ??_C@_06EBGDJLCF@Worker?$AA@ 10027c54     WebWorkerThreads.obj
 0002:00007c5c       ??_C@_04KGAGIKCD@eval?$AA@ 10027c5c     WebWorkerThreads.obj
 0002:00007c64       ??_C@_04EONOHKEP@load?$AA@ 10027c64     WebWorkerThreads.obj
 0002:00007c6c       ??_C@_0P@IGCBMMDB@emitSerialized?$AA@ 10027c6c     WebWorkerThreads.obj
 0002:00007c7c       ??_C@_07OKFGPCEA@destroy?$AA@ 10027c7c     WebWorkerThreads.obj
 0002:00007c84       ??_C@_0BL@PBKGPJGG@?4?4?2src?2WebWorkerThreads?4cc?$AA@ 10027c84     WebWorkerThreads.obj
 0002:00007ca0       ??_C@_0BB@HKDEBMMD@WebWorkerThreads?$AA@ 10027ca0     WebWorkerThreads.obj
 0002:00007cb4       ??_7ObjectWrap@node@@6B@   10027cb4     WebWorkerThreads.obj
 0002:00007cc0       ??_7ExternalStringResourceBase@String@v8@@6B@ 10027cc0     WebWorkerThreads.obj
 0002:00007cc8       ??_7BSON@@6B@              10027cc8     WebWorkerThreads.obj
 0002:00007cd4       ??_7ArrayBufferAllocator@@6B@ 10027cd4     WebWorkerThreads.obj
 0002:00007ce4       ??_7ExternalOneByteStringResourceImpl@v8@@6B@ 10027ce4     WebWorkerThreads.obj
 0002:00007cf4       ??_7ExternalStringResource@String@v8@@6B@ 10027cf4     WebWorkerThreads.obj
 0002:00007cf4       ??_7ExternalOneByteStringResource@String@v8@@6B@ 10027cf4     WebWorkerThreads.obj
 0002:00007d18       ??_7ExternalSourceStream@ScriptCompiler@v8@@6B@ 10027d18     WebWorkerThreads.obj
 0002:00007d28       ??_7Allocator@ArrayBuffer@v8@@6B@ 10027d28     WebWorkerThreads.obj
 0002:00007d38       ??_7Extension@v8@@6B@      10027d38     WebWorkerThreads.obj
 0002:00007d40       ??_7PersistentHandleVisitor@v8@@6B@ 10027d40     WebWorkerThreads.obj
 0002:00007d48       ??_7ExternalResourceVisitor@v8@@6B@ 10027d48     WebWorkerThreads.obj
 0002:00007d50       ??_C@_08HCOMDCCD@iojs?4exe?$AA@ 10027d50     win_delay_load_hook.obj
 0002:00007d5c       ??_C@_08JDDNMFDB@node?4exe?$AA@ 10027d5c     win_delay_load_hook.obj
 0002:00007d68       __real@0000000000000000    10027d68     WebWorkerThreads.obj
 0002:00007d70       __real@3ff0000000000000    10027d70     WebWorkerThreads.obj
 0002:00007d78       __real@409f400000000000    10027d78     WebWorkerThreads.obj
 0002:00007e64       ??_R4type_info@@6B@        10027e64     LIBCMT:std_type_info_static.obj
 0002:00007e78       ??_R3type_info@@8          10027e78     LIBCMT:std_type_info_static.obj
 0002:00007e88       ??_R2type_info@@8          10027e88     LIBCMT:std_type_info_static.obj
 0002:00007e90       ??_R1A@?0A@EA@type_info@@8 10027e90     LIBCMT:std_type_info_static.obj
 0002:00007eac       ??_R4exception@std@@6B@    10027eac     LIBCMT:throw_bad_alloc.obj
 0002:00007ec0       ??_R3exception@std@@8      10027ec0     LIBCMT:throw_bad_alloc.obj
 0002:00007ed0       ??_R2exception@std@@8      10027ed0     LIBCMT:throw_bad_alloc.obj
 0002:00007ed8       ??_R1A@?0A@EA@exception@std@@8 10027ed8     LIBCMT:throw_bad_alloc.obj
 0002:00007ef4       ??_R4bad_alloc@std@@6B@    10027ef4     LIBCMT:throw_bad_alloc.obj
 0002:00007f08       ??_R3bad_alloc@std@@8      10027f08     LIBCMT:throw_bad_alloc.obj
 0002:00007f18       ??_R2bad_alloc@std@@8      10027f18     LIBCMT:throw_bad_alloc.obj
 0002:00007f24       ??_R1A@?0A@EA@bad_alloc@std@@8 10027f24     LIBCMT:throw_bad_alloc.obj
 0002:00007f40       ??_R4bad_array_new_length@std@@6B@ 10027f40     LIBCMT:throw_bad_alloc.obj
 0002:00007f54       ??_R3bad_array_new_length@std@@8 10027f54     LIBCMT:throw_bad_alloc.obj
 0002:00007f64       ??_R2bad_array_new_length@std@@8 10027f64     LIBCMT:throw_bad_alloc.obj
 0002:00007f74       ??_R1A@?0A@EA@bad_array_new_length@std@@8 10027f74     LIBCMT:throw_bad_alloc.obj
 0002:00007f90       ___safe_se_handler_table   10027f90     <linker-defined>
 0002:00007fa0       ?_TraceLoggingMetadata@?1??_TlgWrite@__vcrt_trace_logging_provider@@YAJPBU_TlgProvider_t@2@PBXPBU_GUID@@2IPAU_EVENT_DATA_DESCRIPTOR@@@Z@4U_TraceLoggingMetadata_t@2@B 10027fa0     libvcruntime:telemetry.obj
 0002:00008053       ?_TraceLoggingMetadataEnd@?1??_TlgWrite@__vcrt_trace_logging_provider@@YAJPBU_TlgProvider_t@2@PBXPBU_GUID@@2IPAU_EVENT_DATA_DESCRIPTOR@@@Z@4EB 10028053     libvcruntime:telemetry.obj
 0002:000084ac       ___rtc_iaa                 100284ac     LIBCMT:_initsect_.obj
 0002:000084b0       ___rtc_izz                 100284b0     LIBCMT:_initsect_.obj
 0002:000084b4       ___rtc_taa                 100284b4     LIBCMT:_initsect_.obj
 0002:000084b8       ___rtc_tzz                 100284b8     LIBCMT:_initsect_.obj
 0002:0000853c       __TI2?AVbad_alloc@std@@    1002853c     LIBCMT:throw_bad_alloc.obj
 0002:0000854c       __CTA2?AVbad_alloc@std@@   1002854c     LIBCMT:throw_bad_alloc.obj
 0002:00008558       __CT??_R0?AVbad_alloc@std@@@8??0bad_alloc@std@@QAE@ABV01@@Z12 10028558     LIBCMT:throw_bad_alloc.obj
 0002:00008574       __CT??_R0?AVexception@std@@@8??0exception@std@@QAE@ABV01@@Z12 10028574     LIBCMT:throw_bad_alloc.obj
 0002:00008590       __TI3?AVbad_array_new_length@std@@ 10028590     LIBCMT:throw_bad_alloc.obj
 0002:000085a0       __CTA3?AVbad_array_new_length@std@@ 100285a0     LIBCMT:throw_bad_alloc.obj
 0002:000085b0       __CT??_R0?AVbad_array_new_length@std@@@8??0bad_array_new_length@std@@QAE@ABV01@@Z12 100285b0     LIBCMT:throw_bad_alloc.obj
 0002:00008afc       __CT??_R0PAX@84            10028afc     WebWorkerThreads.obj
 0002:00008b18       __TI2PAD                   10028b18     WebWorkerThreads.obj
 0002:00008b28       __CT??_R0PAD@84            10028b28     WebWorkerThreads.obj
 0002:00008b44       __CTA2PAD                  10028b44     WebWorkerThreads.obj
 0002:00008b50       __DELAY_IMPORT_DESCRIPTOR_node_exe 10028b50     node:node.exe
 0002:00008b70       __NULL_DELAY_IMPORT_DESCRIPTOR 10028b70     node:node.exe
 0002:00008dfc       \177node_NULL_THUNK_DATA_DLN 10028dfc     node:node.exe
 0002:0000b140       \177node_NULL_THUNK_DATA_DLB 1002b140     node:node.exe
 0002:0000f7b0       __IMPORT_DESCRIPTOR_KERNEL32 1002f7b0     kernel32:KERNEL32.dll
 0002:0000f7c4       __IMPORT_DESCRIPTOR_ADVAPI32 1002f7c4     advapi32:ADVAPI32.dll
 0002:0000f7d8       __NULL_IMPORT_DESCRIPTOR   1002f7d8     kernel32:KERNEL32.dll
 0003:00000000       ___scrt_native_dllmain_reason 10030000     LIBCMT:utility.obj
 0003:00000004       ___security_cookie_complement 10030004     LIBCMT:gs_cookie.obj
 0003:00000008       ___security_cookie         10030008     LIBCMT:gs_cookie.obj
 0003:0000000c       ___isa_enabled             1003000c     LIBCMT:_cpu_disp_.obj
 0003:00000060       __NLG_Destination          10030060     libvcruntime:_exsup_.obj
 0003:00000070       __iob                      10030070     libucrt:_file.obj
 0003:00000120       ___abort_behavior          10030120     libucrt:abort.obj
 0003:00000128       __lookuptrailbytes         10030128     libucrt:read.obj
 0003:00000228       ___badioinfo               10030228     libucrt:ioinit.obj
 0003:00000260       ___acrt_initial_locale_data 10030260     libucrt:nlsdata.obj
 0003:00000318       ___acrt_initial_locale_pointers 10030318     libucrt:nlsdata.obj
 0003:00000320       ___acrt_wide_c_locale_string 10030320     libucrt:nlsdata.obj
 0003:00000418       __mbctype                  10030418     libucrt:mbctype.obj
 0003:00000520       __mbcasemap                10030520     libucrt:mbctype.obj
 0003:00000620       ___acrt_initial_multibyte_data 10030620     libucrt:mbctype.obj
 0003:00000840       ___acrt_current_multibyte_data 10030840     libucrt:mbctype.obj
 0003:00000844       __pwctype                  10030844     libucrt:ctype.obj
 0003:00000850       ___globallocalestatus      10030850     libucrt:glstatus.obj
 0003:00000854       ___acrt_lconv_static_decimal 10030854     libucrt:localeconv.obj
 0003:00000858       ___acrt_lconv_static_W_decimal 10030858     libucrt:localeconv.obj
 0003:00000860       ___acrt_lconv_c            10030860     libucrt:localeconv.obj
 0003:000008b0       ___dcrt_lowio_console_output_handle 100308b0     libucrt:initcon.obj
 0003:000008c0       __fltused                  100308c0     LIBCMT:fltused.obj
 0003:000008f4       ___pfnDliNotifyHook2       100308f4     win_delay_load_hook.obj
 0003:00000900       ??_R0?AVtype_info@@@8      10030900     LIBCMT:std_type_info_static.obj
 0003:00000918       ??_R0?AVbad_alloc@std@@@8  10030918     LIBCMT:throw_bad_alloc.obj
 0003:00000934       ??_R0?AVexception@std@@@8  10030934     LIBCMT:throw_bad_alloc.obj
 0003:00000950       ??_R0?AVbad_array_new_length@std@@@8 10030950     LIBCMT:throw_bad_alloc.obj
 0003:00000978       ??_R0PAX@8                 10030978     WebWorkerThreads.obj
 0003:00000988       ??_R0PAD@8                 10030988     WebWorkerThreads.obj
 0003:00000998       __imp__uv_cond_signal      10030998     node:node.exe
 0003:0000099c       __imp__uv_unref            1003099c     node:node.exe
 0003:000009a0       __imp__uv_mutex_unlock     100309a0     node:node.exe
 0003:000009a4       __imp_?Enter@Context@v8@@QAEXXZ 100309a4     node:node.exe
 0003:000009a8       __imp_?New@Context@v8@@SA?AV?$Local@VContext@v8@@@2@PAVIsolate@2@PAVExtensionConfiguration@2@V?$Local@VObjectTemplate@v8@@@2@V?$Local@VValue@v8@@@2@@Z 100309a8     node:node.exe
 0003:000009ac       __imp_?Global@Context@v8@@QAE?AV?$Local@VObject@v8@@@2@XZ 100309ac     node:node.exe
 0003:000009b0       __imp_?Value@External@v8@@QBEPAXXZ 100309b0     node:node.exe
 0003:000009b4       __imp_?New@External@v8@@SA?AV?$Local@VExternal@v8@@@2@PAVIsolate@2@PAX@Z 100309b4     node:node.exe
 0003:000009b8       __imp_?NewFromUnsigned@Integer@v8@@SA?AV?$Local@VInteger@v8@@@2@PAVIsolate@2@I@Z 100309b8     node:node.exe
 0003:000009bc       __imp_?New@Integer@v8@@SA?AV?$Local@VInteger@v8@@@2@PAVIsolate@2@H@Z 100309bc     node:node.exe
 0003:000009c0       __imp_?CollectAllGarbage@Isolate@v8@@AAEXPBD@Z 100309c0     node:node.exe
 0003:000009c4       __imp_?VisitHandlesForPartialDependence@Isolate@v8@@QAEXPAVPersistentHandleVisitor@2@@Z 100309c4     node:node.exe
 0003:000009c8       __imp_?VisitHandlesWithClassIds@Isolate@v8@@QAEXPAVPersistentHandleVisitor@2@@Z 100309c8     node:node.exe
 0003:000009cc       __imp_?VisitExternalResources@Isolate@v8@@QAEXPAVExternalResourceVisitor@2@@Z 100309cc     node:node.exe
 0003:000009d0       __imp_?RemoveMemoryAllocationCallback@Isolate@v8@@QAEXP6AXW4ObjectSpace@2@W4AllocationAction@2@H@Z@Z 100309d0     node:node.exe
 0003:000009d4       __imp_?AddMemoryAllocationCallback@Isolate@v8@@QAEXP6AXW4ObjectSpace@2@W4AllocationAction@2@H@Z01@Z 100309d4     node:node.exe
 0003:000009d8       __imp_?SetCaptureStackTraceForUncaughtExceptions@Isolate@v8@@QAEX_NHW4StackTraceOptions@StackTrace@2@@Z 100309d8     node:node.exe
 0003:000009dc       __imp_?SetFailedAccessCheckCallbackFunction@Isolate@v8@@QAEXP6AXV?$Local@VObject@v8@@@2@W4AccessType@2@V?$Local@VValue@v8@@@2@@Z@Z 100309dc     node:node.exe
 0003:000009e0       __imp_?RemoveMessageListeners@Isolate@v8@@QAEXP6AXV?$Local@VMessage@v8@@@2@V?$Local@VValue@v8@@@2@@Z@Z 100309e0     node:node.exe
 0003:000009e4       __imp_?AddMessageListener@Isolate@v8@@QAE_NP6AXV?$Local@VMessage@v8@@@2@V?$Local@VValue@v8@@@2@@Z1@Z 100309e4     node:node.exe
 0003:000009e8       __imp_?IsDead@Isolate@v8@@QAE_NXZ 100309e8     node:node.exe
 0003:000009ec       __imp_?SetAllowCodeGenerationFromStringsCallback@Isolate@v8@@QAEXP6A_NV?$Local@VContext@v8@@@2@@Z@Z 100309ec     node:node.exe
 0003:000009f0       __imp_?SetFatalErrorHandler@Isolate@v8@@QAEXP6AXPBD0@Z@Z 100309f0     node:node.exe
 0003:000009f4       __imp_?IdleNotificationDeadline@Isolate@v8@@QAE_NN@Z 100309f4     node:node.exe
 0003:000009f8       __imp_?CancelTerminateExecution@Isolate@v8@@QAEXXZ 100309f8     node:node.exe
 0003:000009fc       __imp_?IsExecutionTerminating@Isolate@v8@@QAE_NXZ 100309fc     node:node.exe
 0003:00000a00       __imp_?TerminateExecution@Isolate@v8@@QAEXXZ 10030a00     node:node.exe
 0003:00000a04       __imp_?RemoveGCEpilogueCallback@Isolate@v8@@QAEXP6AXPAV12@W4GCType@2@W4GCCallbackFlags@2@@Z@Z 10030a04     node:node.exe
 0003:00000a08       __imp_?RemoveGCPrologueCallback@Isolate@v8@@QAEXP6AXPAV12@W4GCType@2@W4GCCallbackFlags@2@@Z@Z 10030a08     node:node.exe
 0003:00000a0c       __imp_?ThrowException@Isolate@v8@@QAE?AV?$Local@VValue@v8@@@2@V32@@Z 10030a0c     node:node.exe
 0003:00000a10       __imp_?GetCurrentContext@Isolate@v8@@QAE?AV?$Local@VContext@v8@@@2@XZ 10030a10     node:node.exe
 0003:00000a14       __imp_?Dispose@Isolate@v8@@QAEXXZ 10030a14     node:node.exe
 0003:00000a18       __imp_?Exit@Isolate@v8@@QAEXXZ 10030a18     node:node.exe
 0003:00000a1c       __imp_?Enter@Isolate@v8@@QAEXXZ 10030a1c     node:node.exe
 0003:00000a20       __imp_?GetCurrent@Isolate@v8@@SAPAV12@XZ 10030a20     node:node.exe
 0003:00000a24       __imp_?New@Isolate@v8@@SAPAV12@ABUCreateParams@12@@Z 10030a24     node:node.exe
 0003:00000a28       __imp_?ResetToBookmark@ExternalSourceStream@ScriptCompiler@v8@@UAEXXZ 10030a28     node:node.exe
 0003:00000a2c       __imp_?SetBookmark@ExternalSourceStream@ScriptCompiler@v8@@UAE_NXZ 10030a2c     node:node.exe
 0003:00000a30       __imp_??1CachedData@ScriptCompiler@v8@@QAE@XZ 10030a30     node:node.exe
 0003:00000a34       __imp_?Compile@ScriptCompiler@v8@@SA?AV?$MaybeLocal@VScript@v8@@@2@V?$Local@VContext@v8@@@2@PAVSource@12@W4CompileOptions@12@@Z 10030a34     node:node.exe
 0003:00000a38       __imp_?GetFlags@RegExp@v8@@QBE?AW4Flags@12@XZ 10030a38     node:node.exe
 0003:00000a3c       __imp_?GetSource@RegExp@v8@@QBE?AV?$Local@VString@v8@@@2@XZ 10030a3c     node:node.exe
 0003:00000a40       __imp_?New@RegExp@v8@@SA?AV?$Local@VRegExp@v8@@@2@V?$Local@VString@v8@@@2@W4Flags@12@@Z 10030a40     node:node.exe
 0003:00000a44       __imp_?CreateHandle@HandleScope@v8@@KAPAPAVObject@internal@2@PAVIsolate@42@PAV342@@Z 10030a44     node:node.exe
 0003:00000a48       __imp_?CreateHandle@HandleScope@v8@@CAPAPAVObject@internal@2@PAVHeapObject@42@PAV342@@Z 10030a48     node:node.exe
 0003:00000a4c       __imp_??1HandleScope@v8@@QAE@XZ 10030a4c     node:node.exe
 0003:00000a50       __imp_??0HandleScope@v8@@QAE@PAVIsolate@1@@Z 10030a50     node:node.exe
 0003:00000a54       __imp_?Set@Template@v8@@QAEXV?$Local@VName@v8@@@2@V?$Local@VData@v8@@@2@W4PropertyAttribute@2@@Z 10030a54     node:node.exe
 0003:00000a58       __imp_?Error@Exception@v8@@SA?AV?$Local@VValue@v8@@@2@V?$Local@VString@v8@@@2@@Z 10030a58     node:node.exe
 0003:00000a5c       __imp_?TypeError@Exception@v8@@SA?AV?$Local@VValue@v8@@@2@V?$Local@VString@v8@@@2@@Z 10030a5c     node:node.exe
 0003:00000a60       __imp_?Initialize@Locker@v8@@AAEXPAVIsolate@2@@Z 10030a60     node:node.exe
 0003:00000a64       __imp_?IsActive@Locker@v8@@SA_NXZ 10030a64     node:node.exe
 0003:00000a68       __imp_??1Locker@v8@@QAE@XZ 10030a68     node:node.exe
 0003:00000a6c       __imp_?New@Array@v8@@SA?AV?$Local@VArray@v8@@@2@PAVIsolate@2@H@Z 10030a6c     node:node.exe
 0003:00000a70       __imp_?Length@Array@v8@@QBEIXZ 10030a70     node:node.exe
 0003:00000a74       __imp_?GetId@UnboundScript@v8@@QAEHXZ 10030a74     node:node.exe
 0003:00000a78       __imp_?Initialize@Unlocker@v8@@AAEXPAVIsolate@2@@Z 10030a78     node:node.exe
 0003:00000a7c       __imp_?New@Date@v8@@SA?AV?$MaybeLocal@VValue@v8@@@2@V?$Local@VContext@v8@@@2@N@Z 10030a7c     node:node.exe
 0003:00000a80       __imp_?InstanceTemplate@FunctionTemplate@v8@@QAE?AV?$Local@VObjectTemplate@v8@@@2@XZ 10030a80     node:node.exe
 0003:00000a84       __imp_?GetFunction@FunctionTemplate@v8@@QAE?AV?$Local@VFunction@v8@@@2@XZ 10030a84     node:node.exe
 0003:00000a88       __imp_?New@FunctionTemplate@v8@@SA?AV?$Local@VFunctionTemplate@v8@@@2@PAVIsolate@2@P6AXABV?$FunctionCallbackInfo@VValue@v8@@@2@@ZV?$Local@VValue@v8@@@2@V?$Local@VSignature@v8@@@2@H@Z 10030a88     node:node.exe
 0003:00000a8c       __imp_?ToLocalEmpty@V8@v8@@CAXXZ 10030a8c     node:node.exe
 0003:00000a90       __imp_?ClearWeak@V8@v8@@CAPAXPAPAVObject@internal@2@@Z 10030a90     node:node.exe
 0003:00000a94       __imp_?MakeWeak@V8@v8@@CAXPAPAVObject@internal@2@PAXP6AXABV?$WeakCallbackData@VValue@v8@@X@2@@Z@Z 10030a94     node:node.exe
 0003:00000a98       __imp_?DisposeGlobal@V8@v8@@CAXPAPAVObject@internal@2@@Z 10030a98     node:node.exe
 0003:00000a9c       __imp_?GlobalizeReference@V8@v8@@CAPAPAVObject@internal@2@PAVIsolate@42@PAPAV342@@Z 10030a9c     node:node.exe
 0003:00000aa0       __imp_?StrictEquals@Value@v8@@QBE_NV?$Local@VValue@v8@@@2@@Z 10030aa0     node:node.exe
 0003:00000aa4       __imp_?Int32Value@Value@v8@@QBEHXZ 10030aa4     node:node.exe
 0003:00000aa8       __imp_?Uint32Value@Value@v8@@QBEIXZ 10030aa8     node:node.exe
 0003:00000aac       __imp_?IntegerValue@Value@v8@@QBE_JXZ 10030aac     node:node.exe
 0003:00000ab0       __imp_?NumberValue@Value@v8@@QBENXZ 10030ab0     node:node.exe
 0003:00000ab4       __imp_?BooleanValue@Value@v8@@QBE_NXZ 10030ab4     node:node.exe
 0003:00000ab8       __imp_?ToInt32@Value@v8@@QBE?AV?$MaybeLocal@VInt32@v8@@@2@V?$Local@VContext@v8@@@2@@Z 10030ab8     node:node.exe
 0003:00000abc       __imp_?ToUint32@Value@v8@@QBE?AV?$MaybeLocal@VUint32@v8@@@2@V?$Local@VContext@v8@@@2@@Z 10030abc     node:node.exe
 0003:00000ac0       __imp_?ToInteger@Value@v8@@QBE?AV?$MaybeLocal@VInteger@v8@@@2@V?$Local@VContext@v8@@@2@@Z 10030ac0     node:node.exe
 0003:00000ac4       __imp_?ToObject@Value@v8@@QBE?AV?$MaybeLocal@VObject@v8@@@2@V?$Local@VContext@v8@@@2@@Z 10030ac4     node:node.exe
 0003:00000ac8       __imp_?ToDetailString@Value@v8@@QBE?AV?$MaybeLocal@VString@v8@@@2@V?$Local@VContext@v8@@@2@@Z 10030ac8     node:node.exe
 0003:00000acc       __imp_?ToString@Value@v8@@QBE?AV?$MaybeLocal@VString@v8@@@2@V?$Local@VContext@v8@@@2@@Z 10030acc     node:node.exe
 0003:00000ad0       __imp_?ToNumber@Value@v8@@QBE?AV?$MaybeLocal@VNumber@v8@@@2@V?$Local@VContext@v8@@@2@@Z 10030ad0     node:node.exe
 0003:00000ad4       __imp_?ToBoolean@Value@v8@@QBE?AV?$MaybeLocal@VBoolean@v8@@@2@V?$Local@VContext@v8@@@2@@Z 10030ad4     node:node.exe
 0003:00000ad8       __imp_?IsRegExp@Value@v8@@QBE_NXZ 10030ad8     node:node.exe
 0003:00000adc       __imp_?IsDate@Value@v8@@QBE_NXZ 10030adc     node:node.exe
 0003:00000ae0       __imp_?IsNumber@Value@v8@@QBE_NXZ 10030ae0     node:node.exe
 0003:00000ae4       __imp_?IsBoolean@Value@v8@@QBE_NXZ 10030ae4     node:node.exe
 0003:00000ae8       __imp_?IsObject@Value@v8@@QBE_NXZ 10030ae8     node:node.exe
 0003:00000aec       __imp_?IsArray@Value@v8@@QBE_NXZ 10030aec     node:node.exe
 0003:00000af0       __imp_?IsFunction@Value@v8@@QBE_NXZ 10030af0     node:node.exe
 0003:00000af4       __imp_?GetEndColumn@Message@v8@@QBEHXZ 10030af4     node:node.exe
 0003:00000af8       __imp_?GetStartColumn@Message@v8@@QBEHXZ 10030af8     node:node.exe
 0003:00000afc       __imp_?GetLineNumber@Message@v8@@QBEHXZ 10030afc     node:node.exe
 0003:00000b00       __imp_?GetScriptResourceName@Message@v8@@QBE?AV?$Local@VValue@v8@@@2@XZ 10030b00     node:node.exe
 0003:00000b04       __imp_?GetSourceLine@Message@v8@@QBE?AV?$Local@VString@v8@@@2@XZ 10030b04     node:node.exe
 0003:00000b08       __imp_?Reset@TryCatch@v8@@QAEXXZ 10030b08     node:node.exe
 0003:00000b0c       __imp_?Message@TryCatch@v8@@QBE?AV?$Local@VMessage@v8@@@2@XZ 10030b0c     node:node.exe
 0003:00000b10       __imp_?StackTrace@TryCatch@v8@@QBE?AV?$Local@VValue@v8@@@2@XZ 10030b10     node:node.exe
 0003:00000b14       __imp_?Exception@TryCatch@v8@@QBE?AV?$Local@VValue@v8@@@2@XZ 10030b14     node:node.exe
 0003:00000b18       __imp_?HasCaught@TryCatch@v8@@QBE_NXZ 10030b18     node:node.exe
 0003:00000b1c       __imp_??1TryCatch@v8@@QAE@XZ 10030b1c     node:node.exe
 0003:00000b20       __imp_??0TryCatch@v8@@QAE@XZ 10030b20     node:node.exe
 0003:00000b24       __imp_?Escape@EscapableHandleScope@v8@@AAEPAPAVObject@internal@2@PAPAV342@@Z 10030b24     node:node.exe
 0003:00000b28       __imp_??0EscapableHandleScope@v8@@QAE@PAVIsolate@1@@Z 10030b28     node:node.exe
 0003:00000b2c       __imp_?GetUnboundScript@Script@v8@@QAE?AV?$Local@VUnboundScript@v8@@@2@XZ 10030b2c     node:node.exe
 0003:00000b30       __imp_?Run@Script@v8@@QAE?AV?$Local@VValue@v8@@@2@XZ 10030b30     node:node.exe
 0003:00000b34       __imp_?Run@Script@v8@@QAE?AV?$MaybeLocal@VValue@v8@@@2@V?$Local@VContext@v8@@@2@@Z 10030b34     node:node.exe
 0003:00000b38       __imp_?Compile@Script@v8@@SA?AV?$Local@VScript@v8@@@2@V?$Local@VString@v8@@@2@PAVScriptOrigin@2@@Z 10030b38     node:node.exe
 0003:00000b3c       __imp_??1Utf8Value@String@v8@@QAE@XZ 10030b3c     node:node.exe
 0003:00000b40       __imp_??0Utf8Value@String@v8@@QAE@V?$Local@VValue@v8@@@2@@Z 10030b40     node:node.exe
 0003:00000b44       __imp_?NewFromTwoByte@String@v8@@SA?AV?$MaybeLocal@VString@v8@@@2@PAVIsolate@2@PBGW4NewStringType@2@H@Z 10030b44     node:node.exe
 0003:00000b48       __imp_?NewFromUtf8@String@v8@@SA?AV?$MaybeLocal@VString@v8@@@2@PAVIsolate@2@PBDW4NewStringType@2@H@Z 10030b48     node:node.exe
 0003:00000b4c       __imp_?WriteUtf8@String@v8@@QBEHPADHPAHH@Z 10030b4c     node:node.exe
 0003:00000b50       __imp_?Write@String@v8@@QBEHPAGHHH@Z 10030b50     node:node.exe
 0003:00000b54       __imp_?Utf8Length@String@v8@@QBEHXZ 10030b54     node:node.exe
 0003:00000b58       __imp_??0ResourceConstraints@v8@@QAE@XZ 10030b58     node:node.exe
 0003:00000b5c       __imp_?New@Number@v8@@SA?AV?$Local@VNumber@v8@@@2@PAVIsolate@2@N@Z 10030b5c     node:node.exe
 0003:00000b60       __imp_?SlowGetAlignedPointerFromInternalField@Object@v8@@AAEPAXH@Z 10030b60     node:node.exe
 0003:00000b64       __imp_?SlowGetInternalField@Object@v8@@AAE?AV?$Local@VValue@v8@@@2@H@Z 10030b64     node:node.exe
 0003:00000b68       __imp_?New@Object@v8@@SA?AV?$Local@VObject@v8@@@2@PAVIsolate@2@@Z 10030b68     node:node.exe
 0003:00000b6c       __imp_?CallAsFunction@Object@v8@@QAE?AV?$Local@VValue@v8@@@2@V32@HQAV32@@Z 10030b6c     node:node.exe
 0003:00000b70       __imp_?SetAlignedPointerInInternalField@Object@v8@@QAEXHPAX@Z 10030b70     node:node.exe
 0003:00000b74       __imp_?SetInternalField@Object@v8@@QAEXHV?$Local@VValue@v8@@@2@@Z 10030b74     node:node.exe
 0003:00000b78       __imp_?InternalFieldCount@Object@v8@@QAEHXZ 10030b78     node:node.exe
 0003:00000b7c       __imp_?GetConstructorName@Object@v8@@QAE?AV?$Local@VString@v8@@@2@XZ 10030b7c     node:node.exe
 0003:00000b80       __imp_?GetOwnPropertyNames@Object@v8@@QAE?AV?$Local@VArray@v8@@@2@XZ 10030b80     node:node.exe
 0003:00000b84       __imp_?GetPropertyNames@Object@v8@@QAE?AV?$Local@VArray@v8@@@2@XZ 10030b84     node:node.exe
 0003:00000b88       __imp_?Has@Object@v8@@QAE_NV?$Local@VValue@v8@@@2@@Z 10030b88     node:node.exe
 0003:00000b8c       __imp_?Get@Object@v8@@QAE?AV?$Local@VValue@v8@@@2@V32@@Z 10030b8c     node:node.exe
 0003:00000b90       __imp_?Get@Object@v8@@QAE?AV?$Local@VValue@v8@@@2@I@Z 10030b90     node:node.exe
 0003:00000b94       __imp_?ForceSet@Object@v8@@QAE_NV?$Local@VValue@v8@@@2@0W4PropertyAttribute@2@@Z 10030b94     node:node.exe
 0003:00000b98       __imp_?Set@Object@v8@@QAE_NV?$Local@VValue@v8@@@2@0@Z 10030b98     node:node.exe
 0003:00000b9c       __imp_?Set@Object@v8@@QAE_NIV?$Local@VValue@v8@@@2@@Z 10030b9c     node:node.exe
 0003:00000ba0       __imp_?Call@Function@v8@@QAE?AV?$Local@VValue@v8@@@2@V32@HQAV32@@Z 10030ba0     node:node.exe
 0003:00000ba4       __imp_?NewInstance@Function@v8@@QBE?AV?$Local@VObject@v8@@@2@HQAV?$Local@VValue@v8@@@2@@Z 10030ba4     node:node.exe
 0003:00000ba8       __imp_?NewInstance@Function@v8@@QBE?AV?$MaybeLocal@VObject@v8@@@2@V?$Local@VContext@v8@@@2@HQAV?$Local@VValue@v8@@@2@@Z 10030ba8     node:node.exe
 0003:00000bac       __imp_?NewInstance@Function@v8@@QBE?AV?$Local@VObject@v8@@@2@XZ 10030bac     node:node.exe
 0003:00000bb0       __imp_?SetInternalFieldCount@ObjectTemplate@v8@@QAEXH@Z 10030bb0     node:node.exe
 0003:00000bb4       __imp_?SetHandler@ObjectTemplate@v8@@QAEXABUIndexedPropertyHandlerConfiguration@2@@Z 10030bb4     node:node.exe
 0003:00000bb8       __imp_?NewInstance@ObjectTemplate@v8@@QAE?AV?$Local@VObject@v8@@@2@XZ 10030bb8     node:node.exe
 0003:00000bbc       __imp_?NewInstance@ObjectTemplate@v8@@QAE?AV?$MaybeLocal@VObject@v8@@@2@V?$Local@VContext@v8@@@2@@Z 10030bbc     node:node.exe
 0003:00000bc0       __imp_?New@ObjectTemplate@v8@@SA?AV?$Local@VObjectTemplate@v8@@@2@PAVIsolate@2@V?$Local@VFunctionTemplate@v8@@@2@@Z 10030bc0     node:node.exe
 0003:00000bc4       __imp_?New@ObjectTemplate@v8@@SA?AV?$Local@VObjectTemplate@v8@@@2@XZ 10030bc4     node:node.exe
 0003:00000bc8       __imp__uv_cond_init        10030bc8     node:node.exe
 0003:00000bcc       __imp__uv_mutex_lock       10030bcc     node:node.exe
 0003:00000bd0       __imp_?FatalException@node@@YAXPAVIsolate@v8@@ABVTryCatch@3@@Z 10030bd0     node:node.exe
 0003:00000bd4       __imp__node_module_register 10030bd4     node:node.exe
 0003:00000bd8       __imp_?HasInstance@Buffer@node@@YA_NV?$Local@VValue@v8@@@v8@@@Z 10030bd8     node:node.exe
 0003:00000bdc       __imp_?New@Buffer@node@@YA?AV?$MaybeLocal@VObject@v8@@@v8@@PAVIsolate@4@PADI@Z 10030bdc     node:node.exe
 0003:00000be0       __imp_?Data@Buffer@node@@YAPADV?$Local@VObject@v8@@@v8@@@Z 10030be0     node:node.exe
 0003:00000be4       __imp_?Length@Buffer@node@@YAIV?$Local@VObject@v8@@@v8@@@Z 10030be4     node:node.exe
 0003:00000be8       __imp__uv_thread_create    10030be8     node:node.exe
 0003:00000bec       __imp__uv_cond_wait        10030bec     node:node.exe
 0003:00000bf0       __imp__uv_ref              10030bf0     node:node.exe
 0003:00000bf4       __imp__uv_mutex_init       10030bf4     node:node.exe
 0003:00000bf8       __imp__uv_async_send       10030bf8     node:node.exe
 0003:00000bfc       __imp__uv_async_init       10030bfc     node:node.exe
 0003:00000c00       __imp__uv_default_loop     10030c00     node:node.exe
 0003:00000c04       \177node_NULL_THUNK_DATA_DLA 10030c04     node:node.exe
 0003:00000c08       __hmod__node_exe           10030c08     node:node.exe
 0003:00000c0c       ___scrt_current_native_startup_state 10030c0c     LIBCMT:utility.obj
 0003:00000c10       ___scrt_native_startup_lock 10030c10     LIBCMT:utility.obj
 0003:00000f54       ___isa_available           10030f54     LIBCMT:_cpu_disp_.obj
 0003:00000f58       ___favor                   10030f58     LIBCMT:_cpu_disp_.obj
 0003:00000f5c       ___scrt_debugger_hook_flag 10030f5c     LIBCMT:utility_desktop.obj
 0003:00000f60       ?__type_info_root_node@@3U__type_info_node@@A 10030f60     LIBCMT:tncleanup.obj
 0003:00000f68       ?_OptionsStorage@?1??__local_stdio_scanf_options@@9@4_KA 10030f68     LIBCMT:default_local_stdio_options.obj
 0003:00000f70       ___pPurecall               10030f70     libvcruntime:purevirt_data.obj
 0003:00000fec       ?pArgList@UnDecorator@@0PAVReplicator@@A 10030fec     libvcruntime:undname.obj
 0003:00000ff0       ?pZNameList@UnDecorator@@0PAVReplicator@@A 10030ff0     libvcruntime:undname.obj
 0003:00000ff4       ?pTemplateArgList@UnDecorator@@0PAVReplicator@@A 10030ff4     libvcruntime:undname.obj
 0003:00000ff8       ?gName@UnDecorator@@0PBDB  10030ff8     libvcruntime:undname.obj
 0003:00000ffc       ?name@UnDecorator@@0PBDB   10030ffc     libvcruntime:undname.obj
 0003:00001000       ?outputString@UnDecorator@@0PADA 10031000     libvcruntime:undname.obj
 0003:00001004       ?maxStringLength@UnDecorator@@0HA 10031004     libvcruntime:undname.obj
 0003:00001008       ?disableFlags@UnDecorator@@0KA 10031008     libvcruntime:undname.obj
 0003:0000100c       ?fExplicitTemplateParams@UnDecorator@@0_NA 1003100c     libvcruntime:undname.obj
 0003:0000100d       ?fGetTemplateArgumentList@UnDecorator@@0_NA 1003100d     libvcruntime:undname.obj
 0003:00001010       ?m_pGetParameter@UnDecorator@@0P6APADJ@ZA 10031010     libvcruntime:undname.obj
 0003:00001028       __nstream                  10031028     libucrt:_file.obj
 0003:0000102c       ___piob                    1003102c     libucrt:_file.obj
 0003:00001030       __cflush                   10031030     libucrt:_file.obj
 0003:00001044       __environ_table            10031044     libucrt:environment_initialization.obj
 0003:00001048       __wenviron_table           10031048     libucrt:environment_initialization.obj
 0003:0000104c       ___dcrt_initial_wide_environment 1003104c     libucrt:environment_initialization.obj
 0003:00001050       ___dcrt_initial_narrow_environment 10031050     libucrt:environment_initialization.obj
 0003:00001054       ___acrt_atexit_table       10031054     libucrt:onexit.obj
 0003:00001060       ___acrt_at_quick_exit_table 10031060     libucrt:onexit.obj
 0003:00001070       ___pioinfo                 10031070     libucrt:ioinit.obj
 0003:00001270       __nhandle                  10031270     libucrt:ioinit.obj
 0003:00001490       ___acrt_stdout_buffer      10031490     libucrt:_sftbuf.obj
 0003:00001494       ___acrt_stderr_buffer      10031494     libucrt:_sftbuf.obj
 0003:00001498       ___acrt_locale_changed_data 10031498     libucrt:wsetlocale.obj
 0003:0000149c       ___acrt_current_locale_data 1003149c     libucrt:nlsdata.obj
 0003:000014b8       ___mblocalename            100314b8     libucrt:mbctype.obj
 0003:000014bc       ___mbcodepage              100314bc     libucrt:mbctype.obj
 0003:000014c0       ___ismbcodepage            100314c0     libucrt:mbctype.obj
 0003:000014c4       ___mbulinfo                100314c4     libucrt:mbctype.obj
 0003:000014d8       ___acrt_heap               100314d8     libucrt:heap_handle.obj
 0003:000014dc       ___argv                    100314dc     libucrt:argv_data.obj
 0003:000014e0       ___wargv                   100314e0     libucrt:argv_data.obj
 0003:000014e4       __acmdln                   100314e4     libucrt:argv_data.obj
 0003:000014e8       __wcmdln                   100314e8     libucrt:argv_data.obj
 0003:000014f4       __commode                  100314f4     libucrt:ncommode.obj
 0003:000014f8       ___acrt_lconv_static_null  100314f8     libucrt:localeconv.obj
 0003:000014fc       ___acrt_lconv_static_W_null 100314fc     libucrt:localeconv.obj
 0003:00001500       __umaskval                 10031500     libucrt:umask.obj
 0003:00001504       __fmode                    10031504     libucrt:txtmode.obj
 0003:00001508       ___fastflag                10031508     libucrt:fp_flags.obj
 0003:00001510       ?DloadKernel32@@3PAUHINSTANCE__@@A 10031510     DelayImp:delayhlp.obj
 0003:00001514       ?DloadAcquireSRWLockExclusive@@3P6GXPAK@ZA 10031514     DelayImp:delayhlp.obj
 0003:00001518       ?DloadReleaseSRWLockExclusive@@3P6GXPAK@ZA 10031518     DelayImp:delayhlp.obj
 0003:0000151c       ?DloadSrwLock@@3KA         1003151c     DelayImp:delayhlp.obj
 0003:00001520       ?DloadSectionLockCount@@3KA 10031520     DelayImp:delayhlp.obj
 0003:00001524       ?DloadSectionOldProtection@@3KA 10031524     DelayImp:delayhlp.obj
 0003:00001528       ?DloadSectionCommitPermanent@@3KA 10031528     DelayImp:delayhlp.obj
 0003:0000152c       ___pfnDliFailureHook2      1003152c     DelayImp:delayhk1.obj
 0003:00001540       ?constructor_template@BSON@@2V?$Persistent@VFunctionTemplate@v8@@V?$NonCopyablePersistentTraits@VFunctionTemplate@v8@@@2@@Nan@@A 10031540     WebWorkerThreads.obj
 0003:00001558       ?_OptionsStorage@?1??__local_stdio_printf_options@@9@4_KA 10031558     WebWorkerThreads.obj
 0003:00001560       ___dyn_tls_init_callback   10031560     <common>
 0003:00001564       ___scrt_ucrt_dll_is_in_use 10031564     <common>
 0003:00001568       __pDestructExceptionObject 10031568     <common>
 0003:0000156c       __pmatherr                 1003156c     <common>
 0003:00001570       ___use_sse2_mathfcns       10031570     <common>

 entry point at        0001:00009a59

 Static symbols

 0000:fffca000       .debug$S                   10000000     node:node.exe
 0000:fffca000       .debug$S                   10000000     kernel32:KERNEL32.dll
 0000:fffca000       .debug$S                   10000000     kernel32:KERNEL32.dll
 0000:fffca000       .debug$S                   10000000     kernel32:KERNEL32.dll
 0000:fffca000       .debug$S                   10000000     kernel32:KERNEL32.dll
 0000:fffca000       .debug$S                   10000000     kernel32:KERNEL32.dll
 0000:fffca000       .debug$S                   10000000     kernel32:KERNEL32.dll
 0000:fffca000       .debug$S                   10000000     kernel32:KERNEL32.dll
 0000:fffca000       .debug$S                   10000000     kernel32:KERNEL32.dll
 0000:fffca000       .debug$S                   10000000     kernel32:KERNEL32.dll
 0000:fffca000       .debug$S                   10000000     kernel32:KERNEL32.dll
 0000:fffca000       .debug$S                   10000000     kernel32:KERNEL32.dll
 0000:fffca000       .debug$S                   10000000     kernel32:KERNEL32.dll
 0000:fffca000       .debug$S                   10000000     kernel32:KERNEL32.dll
 0000:fffca000       .debug$S                   10000000     kernel32:KERNEL32.dll
 0000:fffca000       .debug$S                   10000000     kernel32:KERNEL32.dll
 0000:fffca000       .debug$S                   10000000     kernel32:KERNEL32.dll
 0000:fffca000       .debug$S                   10000000     kernel32:KERNEL32.dll
 0000:fffca000       .debug$S                   10000000     kernel32:KERNEL32.dll
 0000:fffca000       .debug$S                   10000000     kernel32:KERNEL32.dll
 0000:fffca000       .debug$S                   10000000     kernel32:KERNEL32.dll
 0000:fffca000       .debug$S                   10000000     kernel32:KERNEL32.dll
 0000:fffca000       .debug$S                   10000000     kernel32:KERNEL32.dll
 0000:fffca000       .debug$S                   10000000     kernel32:KERNEL32.dll
 0000:fffca000       .debug$S                   10000000     kernel32:KERNEL32.dll
 0000:fffca000       .debug$S                   10000000     kernel32:KERNEL32.dll
 0000:fffca000       .debug$S                   10000000     kernel32:KERNEL32.dll
 0000:fffca000       .debug$S                   10000000     kernel32:KERNEL32.dll
 0000:fffca000       .debug$S                   10000000     kernel32:KERNEL32.dll
 0000:fffca000       .debug$S                   10000000     kernel32:KERNEL32.dll
 0000:fffca000       .debug$S                   10000000     kernel32:KERNEL32.dll
 0000:fffca000       .debug$S                   10000000     kernel32:KERNEL32.dll
 0000:fffca000       .debug$S                   10000000     kernel32:KERNEL32.dll
 0000:fffca000       .debug$S                   10000000     kernel32:KERNEL32.dll
 0000:fffca000       .debug$S                   10000000     kernel32:KERNEL32.dll
 0000:fffca000       .debug$S                   10000000     kernel32:KERNEL32.dll
 0000:fffca000       .debug$S                   10000000     kernel32:KERNEL32.dll
 0000:fffca000       .debug$S                   10000000     kernel32:KERNEL32.dll
 0000:fffca000       .debug$S                   10000000     kernel32:KERNEL32.dll
 0000:fffca000       .debug$S                   10000000     kernel32:KERNEL32.dll
 0000:fffca000       .debug$S                   10000000     kernel32:KERNEL32.dll
 0000:fffca000       .debug$S                   10000000     kernel32:KERNEL32.dll
 0000:fffca000       .debug$S                   10000000     kernel32:KERNEL32.dll
 0000:fffca000       .debug$S                   10000000     kernel32:KERNEL32.dll
 0000:fffca000       .debug$S                   10000000     WebWorkerThreads.exp
 0000:fffca000       .debug$S                   10000000     kernel32:KERNEL32.dll
 0000:fffca000       .debug$S                   10000000     kernel32:KERNEL32.dll
 0000:fffca000       .debug$S                   10000000     kernel32:KERNEL32.dll
 0000:fffca000       .debug$S                   10000000     kernel32:KERNEL32.dll
 0000:fffca000       .debug$S                   10000000     kernel32:KERNEL32.dll
 0000:fffca000       .debug$S                   10000000     kernel32:KERNEL32.dll
 0000:fffca000       .debug$S                   10000000     kernel32:KERNEL32.dll
 0000:fffca000       .debug$S                   10000000     kernel32:KERNEL32.dll
 0000:fffca000       .debug$S                   10000000     kernel32:KERNEL32.dll
 0000:fffca000       .debug$S                   10000000     kernel32:KERNEL32.dll
 0000:fffca000       .debug$S                   10000000     kernel32:KERNEL32.dll
 0000:fffca000       .debug$S                   10000000     kernel32:KERNEL32.dll
 0000:fffca000       .debug$S                   10000000     kernel32:KERNEL32.dll
 0000:fffca000       .debug$S                   10000000     kernel32:KERNEL32.dll
 0000:fffca000       .debug$S                   10000000     kernel32:KERNEL32.dll
 0000:fffca000       .debug$S                   10000000     kernel32:KERNEL32.dll
 0000:fffca000       .debug$S                   10000000     kernel32:KERNEL32.dll
 0000:fffca000       .debug$S                   10000000     kernel32:KERNEL32.dll
 0000:fffca000       .debug$S                   10000000     kernel32:KERNEL32.dll
 0000:fffca000       .debug$S                   10000000     kernel32:KERNEL32.dll
 0000:fffca000       .debug$S                   10000000     kernel32:KERNEL32.dll
 0000:fffca000       .debug$S                   10000000     kernel32:KERNEL32.dll
 0000:fffca000       .debug$S                   10000000     kernel32:KERNEL32.dll
 0000:fffca000       .debug$S                   10000000     kernel32:KERNEL32.dll
 0000:fffca000       .debug$S                   10000000     kernel32:KERNEL32.dll
 0000:fffca000       .debug$S                   10000000     kernel32:KERNEL32.dll
 0000:fffca000       .debug$S                   10000000     kernel32:KERNEL32.dll
 0000:fffca000       .debug$S                   10000000     kernel32:KERNEL32.dll
 0000:fffca000       .debug$S                   10000000     kernel32:KERNEL32.dll
 0000:fffca000       .debug$S                   10000000     kernel32:KERNEL32.dll
 0000:fffca000       .debug$S                   10000000     kernel32:KERNEL32.dll
 0000:fffca000       .debug$S                   10000000     kernel32:KERNEL32.dll
 0000:fffca000       .debug$S                   10000000     kernel32:KERNEL32.dll
 0000:fffca000       .debug$S                   10000000     kernel32:KERNEL32.dll
 0000:fffca000       .debug$S                   10000000     kernel32:KERNEL32.dll
 0000:fffca000       .debug$S                   10000000     kernel32:KERNEL32.dll
 0000:fffca000       .debug$S                   10000000     kernel32:KERNEL32.dll
 0000:fffca000       .debug$S                   10000000     kernel32:KERNEL32.dll
 0000:fffca000       .debug$S                   10000000     kernel32:KERNEL32.dll
 0000:fffca000       .debug$S                   10000000     kernel32:KERNEL32.dll
 0000:fffca000       .debug$S                   10000000     kernel32:KERNEL32.dll
 0000:fffca000       .debug$S                   10000000     kernel32:KERNEL32.dll
 0000:fffca000       .debug$S                   10000000     kernel32:KERNEL32.dll
 0000:fffca000       .debug$S                   10000000     advapi32:ADVAPI32.dll
 0000:fffca000       .debug$S                   10000000     node:node.exe
 0000:fffca000       .debug$S                   10000000     node:node.exe
 0000:fffca000       .debug$S                   10000000     node:node.exe
 0000:fffca000       .debug$S                   10000000     node:node.exe
 0000:fffca000       .debug$S                   10000000     node:node.exe
 0000:fffca000       .debug$S                   10000000     node:node.exe
 0000:fffca000       .debug$S                   10000000     node:node.exe
 0000:fffca000       .debug$S                   10000000     node:node.exe
 0000:fffca000       .debug$S                   10000000     node:node.exe
 0000:fffca000       .debug$S                   10000000     node:node.exe
 0000:fffca000       .debug$S                   10000000     node:node.exe
 0000:fffca000       .debug$S                   10000000     node:node.exe
 0000:fffca000       .debug$S                   10000000     node:node.exe
 0000:fffca000       .debug$S                   10000000     node:node.exe
 0000:fffca000       .debug$S                   10000000     node:node.exe
 0000:fffca000       .debug$S                   10000000     node:node.exe
 0000:fffca000       .debug$S                   10000000     node:node.exe
 0000:fffca000       .debug$S                   10000000     node:node.exe
 0000:fffca000       .debug$S                   10000000     node:node.exe
 0000:fffca000       .debug$S                   10000000     node:node.exe
 0000:fffca000       .debug$S                   10000000     node:node.exe
 0000:fffca000       .debug$S                   10000000     node:node.exe
 0000:fffca000       .debug$S                   10000000     node:node.exe
 0000:fffca000       .debug$S                   10000000     node:node.exe
 0000:fffca000       .debug$S                   10000000     node:node.exe
 0000:fffca000       .debug$S                   10000000     node:node.exe
 0000:fffca000       .debug$S                   10000000     node:node.exe
 0000:fffca000       .debug$S                   10000000     node:node.exe
 0000:fffca000       .debug$S                   10000000     node:node.exe
 0000:fffca000       .debug$S                   10000000     node:node.exe
 0000:fffca000       .debug$S                   10000000     node:node.exe
 0000:fffca000       .debug$S                   10000000     node:node.exe
 0000:fffca000       .debug$S                   10000000     node:node.exe
 0000:fffca000       .debug$S                   10000000     node:node.exe
 0000:fffca000       .debug$S                   10000000     node:node.exe
 0000:fffca000       .debug$S                   10000000     node:node.exe
 0000:fffca000       .debug$S                   10000000     node:node.exe
 0000:fffca000       .debug$S                   10000000     node:node.exe
 0000:fffca000       .debug$S                   10000000     node:node.exe
 0000:fffca000       .debug$S                   10000000     node:node.exe
 0000:fffca000       .debug$S                   10000000     node:node.exe
 0000:fffca000       .debug$S                   10000000     node:node.exe
 0000:fffca000       .debug$S                   10000000     node:node.exe
 0000:fffca000       .debug$S                   10000000     node:node.exe
 0000:fffca000       .debug$S                   10000000     node:node.exe
 0000:fffca000       .debug$S                   10000000     node:node.exe
 0000:fffca000       .debug$S                   10000000     node:node.exe
 0000:fffca000       .debug$S                   10000000     node:node.exe
 0000:fffca000       .debug$S                   10000000     node:node.exe
 0000:fffca000       .debug$S                   10000000     node:node.exe
 0000:fffca000       .debug$S                   10000000     node:node.exe
 0000:fffca000       .debug$S                   10000000     node:node.exe
 0000:fffca000       .debug$S                   10000000     node:node.exe
 0000:fffca000       .debug$S                   10000000     node:node.exe
 0000:fffca000       .debug$S                   10000000     node:node.exe
 0000:fffca000       .debug$S                   10000000     node:node.exe
 0000:fffca000       .debug$S                   10000000     node:node.exe
 0000:fffca000       .debug$S                   10000000     node:node.exe
 0000:fffca000       .debug$S                   10000000     node:node.exe
 0000:fffca000       .debug$S                   10000000     node:node.exe
 0000:fffca000       .debug$S                   10000000     node:node.exe
 0000:fffca000       .debug$S                   10000000     node:node.exe
 0000:fffca000       .debug$S                   10000000     node:node.exe
 0000:fffca000       .debug$S                   10000000     node:node.exe
 0000:fffca000       .debug$S                   10000000     node:node.exe
 0000:fffca000       .debug$S                   10000000     node:node.exe
 0000:fffca000       .debug$S                   10000000     node:node.exe
 0000:fffca000       .debug$S                   10000000     node:node.exe
 0000:fffca000       .debug$S                   10000000     node:node.exe
 0000:fffca000       .debug$S                   10000000     node:node.exe
 0000:fffca000       .debug$S                   10000000     node:node.exe
 0000:fffca000       .debug$S                   10000000     node:node.exe
 0000:fffca000       .debug$S                   10000000     node:node.exe
 0000:fffca000       .debug$S                   10000000     node:node.exe
 0000:fffca000       .debug$S                   10000000     node:node.exe
 0000:fffca000       .debug$S                   10000000     node:node.exe
 0000:fffca000       .debug$S                   10000000     node:node.exe
 0000:fffca000       .debug$S                   10000000     node:node.exe
 0000:fffca000       .debug$S                   10000000     node:node.exe
 0000:fffca000       .debug$S                   10000000     node:node.exe
 0000:fffca000       .debug$S                   10000000     node:node.exe
 0000:fffca000       .debug$S                   10000000     node:node.exe
 0000:fffca000       .debug$S                   10000000     node:node.exe
 0000:fffca000       .debug$S                   10000000     node:node.exe
 0000:fffca000       .debug$S                   10000000     node:node.exe
 0000:fffca000       .debug$S                   10000000     node:node.exe
 0000:fffca000       .debug$S                   10000000     node:node.exe
 0000:fffca000       .debug$S                   10000000     node:node.exe
 0000:fffca000       .debug$S                   10000000     node:node.exe
 0000:fffca000       .debug$S                   10000000     node:node.exe
 0000:fffca000       .debug$S                   10000000     node:node.exe
 0000:fffca000       .debug$S                   10000000     node:node.exe
 0000:fffca000       .debug$S                   10000000     node:node.exe
 0000:fffca000       .debug$S                   10000000     node:node.exe
 0000:fffca000       .debug$S                   10000000     node:node.exe
 0000:fffca000       .debug$S                   10000000     node:node.exe
 0000:fffca000       .debug$S                   10000000     node:node.exe
 0000:fffca000       .debug$S                   10000000     node:node.exe
 0000:fffca000       .debug$S                   10000000     node:node.exe
 0000:fffca000       .debug$S                   10000000     node:node.exe
 0000:fffca000       .debug$S                   10000000     node:node.exe
 0000:fffca000       .debug$S                   10000000     node:node.exe
 0000:fffca000       .debug$S                   10000000     node:node.exe
 0000:fffca000       .debug$S                   10000000     node:node.exe
 0000:fffca000       .debug$S                   10000000     node:node.exe
 0000:fffca000       .debug$S                   10000000     node:node.exe
 0000:fffca000       .debug$S                   10000000     node:node.exe
 0000:fffca000       .debug$S                   10000000     node:node.exe
 0000:fffca000       .debug$S                   10000000     node:node.exe
 0000:fffca000       .debug$S                   10000000     node:node.exe
 0000:fffca000       .debug$S                   10000000     node:node.exe
 0000:fffca000       .debug$S                   10000000     node:node.exe
 0000:fffca000       .debug$S                   10000000     node:node.exe
 0000:fffca000       .debug$S                   10000000     node:node.exe
 0000:fffca000       .debug$S                   10000000     node:node.exe
 0000:fffca000       .debug$S                   10000000     node:node.exe
 0000:fffca000       .debug$S                   10000000     node:node.exe
 0000:fffca000       .debug$S                   10000000     node:node.exe
 0000:fffca000       .debug$S                   10000000     node:node.exe
 0000:fffca000       .debug$S                   10000000     node:node.exe
 0000:fffca000       .debug$S                   10000000     node:node.exe
 0000:fffca000       .debug$S                   10000000     node:node.exe
 0000:fffca000       .debug$S                   10000000     node:node.exe
 0000:fffca000       .debug$S                   10000000     node:node.exe
 0000:fffca000       .debug$S                   10000000     node:node.exe
 0000:fffca000       .debug$S                   10000000     node:node.exe
 0000:fffca000       .debug$S                   10000000     node:node.exe
 0000:fffca000       .debug$S                   10000000     node:node.exe
 0000:fffca000       .debug$S                   10000000     node:node.exe
 0000:fffca000       .debug$S                   10000000     node:node.exe
 0000:fffca000       .debug$S                   10000000     node:node.exe
 0000:fffca000       .debug$S                   10000000     node:node.exe
 0000:fffca000       .debug$S                   10000000     node:node.exe
 0000:fffca000       .debug$S                   10000000     node:node.exe
 0000:fffca000       .debug$S                   10000000     node:node.exe
 0000:fffca000       .debug$S                   10000000     node:node.exe
 0000:fffca000       .debug$S                   10000000     node:node.exe
 0000:fffca000       .debug$S                   10000000     node:node.exe
 0000:fffca000       .debug$S                   10000000     node:node.exe
 0000:fffca000       .debug$S                   10000000     node:node.exe
 0000:fffca000       .debug$S                   10000000     node:node.exe
 0000:fffca000       .debug$S                   10000000     node:node.exe
 0000:fffca000       .debug$S                   10000000     node:node.exe
 0000:fffca000       .debug$S                   10000000     node:node.exe
 0000:fffca000       .debug$S                   10000000     node:node.exe
 0000:fffca000       .debug$S                   10000000     node:node.exe
 0000:fffca000       .debug$S                   10000000     node:node.exe
 0000:fffca000       .debug$S                   10000000     node:node.exe
 0000:fffca000       .debug$S                   10000000     node:node.exe
 0000:fffca000       .debug$S                   10000000     node:node.exe
 0000:fffca000       .debug$S                   10000000     node:node.exe
 0000:fffca000       .debug$S                   10000000     node:node.exe
 0000:fffca000       .debug$S                   10000000     node:node.exe
 0000:fffca000       .debug$S                   10000000     node:node.exe
 0000:fffca000       .debug$S                   10000000     node:node.exe
 0000:fffca000       .debug$S                   10000000     node:node.exe
 0000:fffca000       .debug$S                   10000000     node:node.exe
 0000:fffca000       .debug$S                   10000000     node:node.exe
 0000:fffca000       .debug$S                   10000000     node:node.exe
 0000:fffca000       .debug$S                   10000000     node:node.exe
 0000:fffca000       .debug$S                   10000000     node:node.exe
 0000:fffca000       .debug$S                   10000000     node:node.exe
 0000:fffca000       .debug$S                   10000000     node:node.exe
 0000:fffca000       .debug$S                   10000000     node:node.exe
 0000:fffca000       .debug$S                   10000000     node:node.exe
 0000:fffca000       .debug$S                   10000000     node:node.exe
 0000:fffca000       .debug$S                   10000000     node:node.exe
 0000:fffca000       .debug$S                   10000000     kernel32:KERNEL32.dll
 0001:00000260       ??__E?constructor_template@BSON@@2V?$Persistent@VFunctionTemplate@v8@@V?$NonCopyablePersistentTraits@VFunctionTemplate@v8@@@2@@Nan@@A@@YAXXZ 10001260 f   WebWorkerThreads.obj
 0001:00000280       ??__Eid_symbol@@YAXXZ      10001280 f   WebWorkerThreads.obj
 0001:000002a0       ??__EthreadTemplate@@YAXXZ 100012a0 f   WebWorkerThreads.obj
 0001:00001590       ?FunctionCallbackWrapper@imp@Nan@@YAXABV?$FunctionCallbackInfo@VValue@v8@@@v8@@@Z 10002590 f   WebWorkerThreads.obj
 0001:00001750       ?nuItem@@YAPAUtypeQueueItem@@HPAX@Z 10002750 f   WebWorkerThreads.obj
 0001:000017d0       ?nuQueue@@YAPAUtypeQueue@@J@Z 100027d0 f   WebWorkerThreads.obj
 0001:00001c34       $LN18                      10002c34     WebWorkerThreads.obj
 0001:00001c48       $LN16                      10002c48     WebWorkerThreads.obj
 0001:00002700       $LN426                     10003700     WebWorkerThreads.obj
 0001:00002750       $LN412                     10003750     WebWorkerThreads.obj
 0001:00003550       ?ReportException@@YAXPAVTryCatch@v8@@@Z 10004550 f   WebWorkerThreads.obj
 0001:00003970       ?console_common_1@@YAXABV?$Local@VValue@v8@@@v8@@PAU_iobuf@@H@Z 10004970 f   WebWorkerThreads.obj
 0001:00003eb0       ?nuJobQueueItem@@YAPAUtypeQueueItem@@XZ 10004eb0 f   WebWorkerThreads.obj
 0001:00003f20       ?pushToInQueue@@YAXPAUtypeQueueItem@@PAUtypeThread@@@Z 10004f20 f   WebWorkerThreads.obj
 0001:00004150       ?aThread@@YAXPAX@Z         10005150 f   WebWorkerThreads.obj
 0001:00004260       ?eventLoop@@YAXPAUtypeThread@@@Z 10005260 f   WebWorkerThreads.obj
 0001:00005460       ?destroyaThread@@YAXPAUtypeThread@@@Z 10006460 f   WebWorkerThreads.obj
 0001:00005570       ?Callback@@YAXPAUuv_async_s@@H@Z 10006570 f   WebWorkerThreads.obj
 0001:00005f90       ?readFile@@YAPADV?$Local@VString@v8@@@v8@@@Z 10006f90 f   WebWorkerThreads.obj
 0001:00007870       __register_WebWorkerThreads 10008870 f   WebWorkerThreads.obj
 0001:00008d20       _load_exe_hook@8           10009d20 f   win_delay_load_hook.obj
 0001:000093ee       ?find_pe_section@@YAPAU_IMAGE_SECTION_HEADER@@QAEI@Z 1000a3ee f   LIBCMT:utility.obj
 0001:00009744       ?dllmain_crt_dispatch@@YGHQAUHINSTANCE__@@KQAX@Z 1000a744 f   LIBCMT:dll_dllmain.obj
 0001:00009797       ?dllmain_crt_process_attach@@YAHQAUHINSTANCE__@@QAX@Z 1000a797 f   LIBCMT:dll_dllmain.obj
 0001:000098a9       ?dllmain_crt_process_detach@@YAH_N@Z 1000a8a9 f   LIBCMT:dll_dllmain.obj
 0001:00009926       ?dllmain_dispatch@@YAHQAUHINSTANCE__@@KQAX@Z 1000a926 f   LIBCMT:dll_dllmain.obj
 0001:00009a2f       ?dllmain_raw@@YGHQAUHINSTANCE__@@KQAX@Z 1000aa2f f   LIBCMT:dll_dllmain.obj
 0001:00009fa0       $$000000                   1000afa0     LIBCMT:_sehprolg4_.obj
 0001:0000a134       __TlgDefineProvider_annotation__Tlg_Microsoft_CRTProviderProv 1000b134 f i libvcruntime:telemetry.obj
 0001:0000a170       $$000000                   1000b170     libvcruntime:strchr.obj
 0001:0000a310       _ValidateLocalCookies      1000b310 f   libvcruntime:_chandler4_.obj
 0001:0000a4aa       ?__telemetry_getfilename@@YAXPAUHINSTANCE__@@PA_WK@Z 1000b4aa f   libvcruntime:telemetry.obj
 0001:0000a730       $$000000                   1000b730     libvcruntime:memset.obj
 0001:0000aa6a       ?try_get_function@@YAPAXW4function_id@?A0x1821e63c@@QBDQBW4module_id@2@2@Z 1000ba6a f   libvcruntime:winapi_downlevel.obj
 0001:0000ab0a       ?try_get_module@@YAPAUHINSTANCE__@@W4module_id@?A0x1821e63c@@@Z 1000bb0a f   libvcruntime:winapi_downlevel.obj
 0001:0000ae20       $$000000                   1000be20     libvcruntime:_exsup4_.obj
 0001:0000aeb0       __unwind_handler4          1000beb0 f   libvcruntime:_exsup4_.obj
 0001:0000af90       $$000000                   1000bf90     libvcruntime:_exsup_.obj
 0001:0000afb0       __unwind_handler           1000bfb0 f   libvcruntime:_exsup_.obj
 0001:0000b0c7       ??$common_ftell@J@@YAJV__crt_stdio_stream@@@Z 1000c0c7 f   libucrt:ftell.obj
 0001:0000b134       ??$common_ftell_nolock@J@@YAJV__crt_stdio_stream@@@Z 1000c134 f   libucrt:ftell.obj
 0001:0000b15f       ??$common_ftell_nolock@_J@@YA_JV__crt_stdio_stream@@@Z 1000c15f f   libucrt:ftell.obj
 0001:0000b2f4       ?common_ftell_read_mode_nolock@@YA_JV__crt_stdio_stream@@_J1@Z 1000c2f4 f   libucrt:ftell.obj
 0001:0000b478       ?common_ftell_translated_utf8_nolock@@YA_JV__crt_stdio_stream@@_J@Z 1000c478 f   libucrt:ftell.obj
 0001:0000b65f       ??$common_fsopen@D@@YAPAU_iobuf@@QBD0H@Z 1000c65f f   libucrt:fopen.obj
 0001:0000b939       _common_flush_all          1000c939 f   libucrt:fflush.obj
 0001:0000bbe1       ?common_fseek@@YAHV__crt_stdio_stream@@_JH@Z 1000cbe1 f   libucrt:fseek.obj
 0001:0000bc68       ?common_fseek_binary_mode_read_only_fast_track_nolock@@YA_NV__crt_stdio_stream@@_JH@Z 1000cc68 f   libucrt:fseek.obj
 0001:0000bd41       ?common_fseek_nolock@@YAHV__crt_stdio_stream@@_JH@Z 1000cd41 f   libucrt:fseek.obj
 0001:0000bf27       ??$common_vsprintf@Vstandard_base@__crt_stdio_output@@D@@YAH_KQADIQBDQAU__crt_locale_pointers@@1@Z 1000cf27 f   libucrt:output.obj
 0001:0000c0a3       ??$common_vsprintf@Vstandard_base@__crt_stdio_output@@_W@@YAH_KQA_WIQB_WQAU__crt_locale_pointers@@QAD@Z 1000d0a3 f   libucrt:output.obj
 0001:0000c760       ??R<lambda_481dd5778c961fbcd3b60b650e9b9dc4>@@QBEHXZ 1000d760 f   libucrt:output.obj
 0001:0000c81d       ??R<lambda_4f2c1eaeead2a5fc776db5b62ea0fb9b>@@QBEHXZ 1000d81d f   libucrt:output.obj
 0001:0000cba9       $LN54                      1000dba9     libucrt:output.obj
 0001:0000ccc5       $LN54                      1000dcc5     libucrt:output.obj
 0001:0000cde5       $LN54                      1000dde5     libucrt:output.obj
 0001:0000cf05       $LN54                      1000df05     libucrt:output.obj
 0001:0000e11d       $LN19                      1000f11d     libucrt:output.obj
 0001:0000f3e8       ??R<lambda_9a20e10065b92b5193c3597a66cba9d4>@@QBEHXZ 100103e8 f   libucrt:fputs.obj
 0001:0000f792       ??$common_assert_to_message_box@_W@@YAXQB_W0IQAX@Z 10010792 f   libucrt:assert.obj
 0001:0000f82e       ??$common_assert_to_message_box_build_string@_W@@YAXQA_WIQB_W1IQAX@Z 1001082e f   libucrt:assert.obj
 0001:0000fd73       ??$common_assert_to_stderr@_W@@YAXQB_W0I@Z 10010d73 f   libucrt:assert.obj
 0001:0000fe1e       ?common_assert_to_stderr_direct@@YAXQB_W0I@Z 10010e1e f   libucrt:assert.obj
 0001:0000fecf       ?get_assert_format@@YAPB_W_W@Z 10010ecf f   libucrt:assert.obj
 0001:0000ffaa       ??$common_strerror@D@@YAPADH@Z 10010faa f   libucrt:strerror.obj
 0001:000103ba       ?atexit_exception_filter@@YAHK@Z 100113ba f   libucrt:exit.obj
 0001:000103cd       ?common_exit@@YAXHW4_crt_exit_cleanup_mode@@W4_crt_exit_return_mode@@@Z 100113cd f   libucrt:exit.obj
 0001:000104e6       ?exit_or_terminate_process@@YAXI@Z 100114e6 f   libucrt:exit.obj
 0001:00010527       ?is_managed_app@@YA_NXZ    10011527 f   libucrt:exit.obj
 0001:0001056b       ?try_cor_exit_process@@YAXI@Z 1001156b f   libucrt:exit.obj
 0001:0001060f       ??$common_initialize_environment_nolock@D@@YAHXZ 1001160f f   libucrt:environment_initialization.obj
 0001:00010668       ??$create_environment@D@@YAQAPADQAD@Z 10011668 f   libucrt:environment_initialization.obj
 0001:00010739       ??$free_environment@_W@@YAXQAPA_W@Z 10011739 f   libucrt:environment_initialization.obj
 0001:00010739       ??$free_environment@D@@YAXQAPAD@Z 10011739 f   libucrt:environment_initialization.obj
 0001:000107a8       ??$uninitialize_environment_internal@D@@YAXAAPAPAD@Z 100117a8 f   libucrt:environment_initialization.obj
 0001:000107c3       ??$uninitialize_environment_internal@_W@@YAXAAPAPA_W@Z 100117c3 f   libucrt:environment_initialization.obj
 0001:0001092b       ??R<lambda_275893d493268fdec8709772e3fcec0e>@@QBEHXZ 1001192b f   libucrt:onexit.obj
 0001:00010a4b       ??R<lambda_4e60a939b0d047cfe11ddc22648dfba9>@@QBEHXZ 10011a4b f   libucrt:onexit.obj
 0001:00010c20       _initialize_global_variables 10011c20 f   libucrt:initialization.obj
 0001:00010c32       _initialize_c              10011c32 f   libucrt:initialization.obj
 0001:00010c4c       _uninitialize_environment  10011c4c f   libucrt:initialization.obj
 0001:00010c54       _initialize_pointers       10011c54 f   libucrt:initialization.obj
 0001:00010c91       _uninitialize_vcruntime    10011c91 f   libucrt:initialization.obj
 0001:00010c9a       _uninitialize_allocated_memory 10011c9a f   libucrt:initialization.obj
 0001:00011bb7       ??$common_lseek@J@@YAJHJH@Z 10012bb7 f   libucrt:lseek.obj
 0001:00011ca2       ??$common_lseek@_J@@YA_JH_JH@Z 10012ca2 f   libucrt:lseek.obj
 0001:00011da7       ??$common_lseek_nolock@J@@YAJHJH@Z 10012da7 f   libucrt:lseek.obj
 0001:00011dfe       ??$common_lseek_nolock@_J@@YA_JH_JH@Z 10012dfe f   libucrt:lseek.obj
 0001:00011e7c       ?common_lseek_do_seek_nolock@@YAJQAXJH@Z 10012e7c f   libucrt:lseek.obj
 0001:00011f67       ??$translate_text_mode_nolock@D@@YAHHQADI@Z 10012f67 f   libucrt:read.obj
 0001:000120be       ??$translate_text_mode_nolock@_W@@YAHHQA_WI@Z 100130be f   libucrt:read.obj
 0001:0001227e       ?translate_ansi_or_utf8_nolock@@YAHHQADIQA_WI@Z 1001327e f   libucrt:read.obj
 0001:000123ce       ?translate_utf16_from_console_nolock@@YAHHQA_WI@Z 100133ce f   libucrt:read.obj
 0001:00012917       ?initialize_inherited_file_handles_nolock@@YAXXZ 10013917 f   libucrt:ioinit.obj
 0001:000129cd       ?initialize_stdio_handles_nolock@@YAXXZ 100139cd f   libucrt:ioinit.obj
 0001:00012b9f       ?find_or_allocate_unused_stream_nolock@@YA?AV__crt_stdio_stream@@XZ 10013b9f f   libucrt:stream.obj
 0001:00012e94       ??$common_openfile@D@@YAPAU_iobuf@@QBD0HV__crt_stdio_stream@@@Z 10013e94 f   libucrt:openfile.obj
 0001:00013017       ?try_get_MessageBoxA@@YAP6GHPAUHWND__@@PBD1I@ZXZ 10014017 f   libucrt:winapi_thunks.obj
 0001:00013031       ?try_get_MessageBoxW@@YAP6GHPAUHWND__@@PB_W1I@ZXZ 10014031 f   libucrt:winapi_thunks.obj
 0001:0001304b       ?try_get_function@@YAPAXW4function_id@?A0x352e5c4b@@QBDQBW4module_id@2@2@Z 1001404b f   libucrt:winapi_thunks.obj
 0001:000130e7       ?try_get_module@@YAPAUHINSTANCE__@@W4module_id@?A0x352e5c4b@@@Z 100140e7 f   libucrt:winapi_thunks.obj
 0001:00013968       ?write_double_translated_ansi_nolock@@YA?AUwrite_result@?A0x47fa6670@@HQBDI@Z 10014968 f   libucrt:write.obj
 0001:00013b1b       ?write_double_translated_unicode_nolock@@YA?AUwrite_result@?A0x47fa6670@@QBDI@Z 10014b1b f   libucrt:write.obj
 0001:00013b88       ?write_requires_double_translation_nolock@@YA_NH@Z 10014b88 f   libucrt:write.obj
 0001:00013bfe       ?write_text_ansi_nolock@@YA?AUwrite_result@?A0x47fa6670@@HQBDI@Z 10014bfe f   libucrt:write.obj
 0001:00013cdd       ?write_text_utf16le_nolock@@YA?AUwrite_result@?A0x47fa6670@@HQBDI@Z 10014cdd f   libucrt:write.obj
 0001:00013dcb       ?write_text_utf8_nolock@@YA?AUwrite_result@?A0x47fa6670@@HQBDI@Z 10014dcb f   libucrt:write.obj
 0001:00014419       ??$common_tox_l@$1?internal_isupper_l@@YA_NHQAU__crt_locale_pointers@@@Z$1?internal_map_lower@@YAHH0@Z@@YAHHKQAU__crt_locale_pointers@@@Z 10015419 f   libucrt:tolower_toupper.obj
 0001:00014563       ?internal_isupper_l@@YA_NHQAU__crt_locale_pointers@@@Z 10015563 f   libucrt:tolower_toupper.obj
 0001:00014d51       ?construct_ptd@@YAXQAU__acrt_ptd@@QAPAU__crt_locale_data@@@Z 10015d51 f   libucrt:per_thread_data.obj
 0001:00014dca       ?destroy_fls@@YGXPAX@Z     10015dca f   libucrt:per_thread_data.obj
 0001:00014deb       ?destroy_ptd@@YAXQAU__acrt_ptd@@@Z 10015deb f   libucrt:per_thread_data.obj
 0001:00014e94       ?replace_current_thread_locale_nolock@@YAXQAU__acrt_ptd@@QAU__crt_locale_data@@@Z 10015e94 f   libucrt:per_thread_data.obj
 0001:0001513f       ?fp_format_a@@YAHQBNPADIQADIH_NIQAU__crt_locale_pointers@@@Z 1001613f f   libucrt:cvt.obj
 0001:00015442       ?fp_format_e@@YAHQBNQADI1IH_NIQAU__crt_locale_pointers@@@Z 10016442 f   libucrt:cvt.obj
 0001:000154dd       ?fp_format_e_internal@@YAHQADIH_NIQAU_strflt@@1QAU__crt_locale_pointers@@@Z 100164dd f   libucrt:cvt.obj
 0001:00015628       ?fp_format_f@@YAHQBNQADI1IHQAU__crt_locale_pointers@@@Z 10016628 f   libucrt:cvt.obj
 0001:000156b5       ?fp_format_f_internal@@YAHQADIHQAU_strflt@@_NQAU__crt_locale_pointers@@@Z 100166b5 f   libucrt:cvt.obj
 0001:0001578c       ?fp_format_g@@YAHQBNQADI1IH_NIQAU__crt_locale_pointers@@@Z 1001678c f   libucrt:cvt.obj
 0001:00015854       ?fp_format_nan_or_infinity@@YAHW4__acrt_fp_class@@_NPADI1@Z 10016854 f   libucrt:cvt.obj
 0001:0001594c       ?shift_bytes@@YAXQADI0H@Z  1001694c f   libucrt:cvt.obj
 0001:00015aca       ?fputwc_binary_nolock@@YAG_WV__crt_stdio_stream@@@Z 10016aca f   libucrt:fputwc.obj
 0001:00015d82       ??$common_flush_and_write_nolock@D@@YAHHV__crt_stdio_stream@@@Z 10016d82 f   libucrt:_flsbuf.obj
 0001:00015e93       ??$common_flush_and_write_nolock@_W@@YAHHV__crt_stdio_stream@@@Z 10016e93 f   libucrt:_flsbuf.obj
 0001:00015fa8       ??$write_buffer_nolock@D@@YA_NDV__crt_stdio_stream@@@Z 10016fa8 f   libucrt:_flsbuf.obj
 0001:00016074       ??$write_buffer_nolock@_W@@YA_N_WV__crt_stdio_stream@@@Z 10017074 f   libucrt:_flsbuf.obj
 0001:000162d7       ??$common_refill_and_read_nolock@D@@YAHV__crt_stdio_stream@@@Z 100172d7 f   libucrt:_filbuf.obj
 0001:00016469       ??$common_xtox@K_W@@YAHKQA_WII_N@Z 10017469 f   libucrt:xtoa.obj
 0001:000164f7       ??$common_xtox_s@K_W@@YAHKQA_WII_N@Z 100174f7 f   libucrt:xtoa.obj
 0001:000166a3       ??$common_tcsncat_s@_W@@YAHQA_WIQB_WI@Z 100176a3 f   libucrt:wcsncat_s.obj
 0001:00016797       ??$common_show_message_box@_W@@YAHQB_W0I@Z 10017797 f   libucrt:crtmbox.obj
 0001:00016870       ??$message_box_wait_thread@_W@@YGKQAX@Z 10017870 f   libucrt:crtmbox.obj
 0001:00016916       ??R<lambda_b721fa326cdb32351d23dfa67958c160>@@QBEHXZ 10017916 f   libucrt:setvbuf.obj
 0001:000169b0       ?set_buffer@@YAHV__crt_stdio_stream@@QADIH@Z 100179b0 f   libucrt:setvbuf.obj
 0001:00016adb       ?get_global_action_nolock@@YAPAP6AXH@ZH@Z 10017adb f   libucrt:signal.obj
 0001:00016b4e       ?siglookup@@YAPAU__crt_signal_action_t@@HQAU1@@Z 10017b4e f   libucrt:signal.obj
 0001:00016de5       ??$common_tcsncpy_s@D@@YAHQADIQBDI@Z 10017de5 f   libucrt:strncpy_s.obj
 0001:00016f0c       ??R<lambda_ad1ced32f4ac17aa236e5ef05d6b3b7c>@@QBEXXZ 10017f0c f   libucrt:mbctype.obj
 0001:00016fd0       ?CPtoLocaleName@@YAPB_WH@Z 10017fd0 f   libucrt:mbctype.obj
 0001:0001700e       ?getSystemCP@@YAHH@Z       1001800e f   libucrt:mbctype.obj
 0001:00017081       ?setSBCS@@YAXPAU__crt_multibyte_data@@@Z 10018081 f   libucrt:mbctype.obj
 0001:000170e6       ?setSBUpLow@@YAXPAU__crt_multibyte_data@@@Z 100180e6 f   libucrt:mbctype.obj
 0001:0001727a       ?setmbcp_internal@@YAHH_N@Z 1001827a f   libucrt:mbctype.obj
 0001:0001762c       _memcpy_s                  1001862c f   libucrt:fread.obj
 0001:0001762c       _memcpy_s                  1001862c f   libucrt:assert.obj
 0001:0001762c       _memcpy_s                  1001862c f   libucrt:mbctype.obj
 0001:0001762c       _memcpy_s                  1001862c f   libucrt:cfout.obj
 0001:000176ad       ?find_end_of_double_null_terminated_sequence@@YAPB_WQB_W@Z 100186ad f   libucrt:get_environment_from_os.obj
 0001:00017813       _initialize_global_state_isolation 10018813 f   libucrt:initialization.obj
 0001:00017813       _uninitialize_global_state_isolation 10018813 f   libucrt:initialization.obj
 0001:00017813       _initialize_environment    10018813 f   libucrt:initialization.obj
 0001:00017813       _report_memory_leaks       10018813 f   libucrt:initialization.obj
 0001:00017813       _uninitialize_c            10018813 f   libucrt:initialization.obj
 0001:00017f40       $$000000                   10018f40     libucrt:strncmp.obj
 0001:000180db       ??$common_sopen_dispatch@D@@YAHQBDHHHQAHH@Z 100190db f   libucrt:open.obj
 0001:000181a7       ?configure_text_mode@@YAHHUfile_options@?A0x704126de@@HAAW4__crt_lowio_text_mode@@@Z 100191a7 f   libucrt:open.obj
 0001:000183f4       ?create_file@@YAPAXQB_WQAU_SECURITY_ATTRIBUTES@@Ufile_options@?A0x704126de@@@Z 100193f4 f   libucrt:open.obj
 0001:00018419       ?decode_open_create_flags@@YAKH@Z 10019419 f   libucrt:open.obj
 0001:00018489       ?decode_options@@YA?AUfile_options@?A0x704126de@@HHH@Z 10019489 f   libucrt:open.obj
 0001:00018605       ?truncate_ctrl_z_if_present@@YAHH@Z 10019605 f   libucrt:open.obj
 0001:00018a4f       ?GetTableIndexFromLocaleName@@YAHPB_W@Z 10019a4f f   libucrt:lcidtoname_downlevel.obj
 0001:00018bb5       ?__acrt_LCMapStringA_stat@@YAHPAU__crt_locale_pointers@@PB_WKPBDHPADHHH@Z 10019bb5 f   libucrt:lcmapstringa.obj
 0001:0001ac72       ?free_crt_array_internal@@YAXQAPBXI@Z 1001bc72 f   libucrt:inittime.obj
 0001:0001af0c       ?initialize_multibyte@@YAHXZ 1001bf0c f   libucrt:multibyte_initializer.obj
 0001:0001afc0       $$000000                   1001bfc0     libucrt:_strnicm.obj
 0001:0001b480       $$000000                   1001c480     libucrt:log10.obj
 0001:0001b5d0       $$000000                   1001c5d0     libucrt:ceil_pentium4.obj
 0001:0001b6ed       ___get_abstract_control_sse2 1001c6ed f   libucrt:_fenvutils.obj
 0001:0001b76a       ___get_abstract_control_x87 1001c76a f   libucrt:_fenvutils.obj
 0001:0001b7dd       ___get_machine_control     1001c7dd f   libucrt:_fenvutils.obj
 0001:0001b84e       ___get_machine_control_sse2 1001c84e f   libucrt:_fenvutils.obj
 0001:0001b8ce       ___get_machine_status_sse2 1001c8ce f   libucrt:_fenvutils.obj
 0001:0001b92f       ___get_machine_status_x87  1001c92f f   libucrt:_fenvutils.obj
 0001:0001bc70       $$000000                   1001cc70     libucrt:log10_pentium4.obj
 0001:0001bf00       $$000000                   1001cf00     libucrt:87tran.obj
 0001:0001c100       $$000000                   1001d100     libucrt:87disp.obj
 0001:0001c300       $$000000                   1001d300     libucrt:common.obj
 0001:0001c490       $$000000                   1001d490     libucrt:genexcep.obj
 0001:0001dac0       $$000000                   1001eac0     LIBCMT:ulldvrm.obj
 0001:0001db60       $$000000                   1001eb60     LIBCMT:lldiv.obj
 0001:0001dc10       $$000000                   1001ec10     LIBCMT:chkstk.obj
 0001:0001dc40       $$000000                   1001ec40     LIBCMT:_sehprolg4gs_.obj
 0001:0001dca0       $$000000                   1001eca0     LIBCMT:llmul.obj
 0001:0001dce0       $$000000                   1001ece0     LIBCMT:lldvrm.obj
 0001:0001ddc0       $$000000                   1001edc0     LIBCMT:ullshr.obj
 0001:0001dde0       $$000000                   1001ede0     LIBCMT:alloca16.obj
 0001:0001de10       $$000000                   1001ee10     LIBCMT:llshl.obj
 0001:0001de30       $$000000                   1001ee30     LIBCMT:_ftol2_.obj
 0001:0001def0       $$000000                   1001eef0     libvcruntime:memcpy.obj
 0001:0001e154       TrailingUpVec              1001f154     libvcruntime:memcpy.obj
 0001:0001e200       TrailingDownVec            1001f200     libvcruntime:memcpy.obj
 0001:0001e470       $$000000                   1001f470     libvcruntime:memmove.obj
 0001:0001e6d4       TrailingUpVec              1001f6d4     libvcruntime:memmove.obj
 0001:0001e780       TrailingDownVec            1001f780     libvcruntime:memmove.obj
 0001:0001e9f0       $$000000                   1001f9f0     libvcruntime:strrchr.obj
 0001:0001eb30       $$000000                   1001fb30     LIBCMT:_ftol3_.obj
 0001:0001eeb0       ??__F?constructor_template@BSON@@2V?$Persistent@VFunctionTemplate@v8@@V?$NonCopyablePersistentTraits@VFunctionTemplate@v8@@@2@@Nan@@A@@YAXXZ 1001feb0 f   WebWorkerThreads.obj
 0001:0001eec0       ??__Fid_symbol@@YAXXZ      1001fec0 f   WebWorkerThreads.obj
 0001:0001eed0       ??__FthreadTemplate@@YAXXZ 1001fed0 f   WebWorkerThreads.obj
 0002:00000134       ?id_symbol$initializer$@@3P6AXXZA 10020134     WebWorkerThreads.obj
 0002:00000138       ??constructor_template$initializer$@BSON@@2P6AXXZA@@3P6AXXZA 10020138     WebWorkerThreads.obj
 0002:0000013c       ?threadTemplate$initializer$@@3P6AXXZA 1002013c     WebWorkerThreads.obj
 0002:00000198       _GS_ExceptionPointers      10020198     LIBCMT:gs_report.obj
 0002:0000022c       ?ExceptionTemplate@?1??_CxxThrowException@@9@8@4UEHExceptionRecord@@B 1002022c     libvcruntime:throw.obj
 0002:0000024c       ?module_names@?A0x1821e63c@@3QBQB_WB 1002024c     libvcruntime:winapi_downlevel.obj
 0002:000002fc       ?candidate_modules@?1??try_get_EventRegister@@YAP6GKPBU_GUID@@P6GX0KE_K1PAU_EVENT_FILTER_DESCRIPTOR@@PAX@Z3PA_K@ZXZ@4QBW4module_id@?A0x1821e63c@@B 100202fc     libvcruntime:winapi_downlevel.obj
 0002:00000310       ?candidate_modules@?1??try_get_EventSetInformation@@YAP6GK_KW4_EVENT_INFO_CLASS@@PAXK@ZXZ@4QBW4module_id@?A0x1821e63c@@B 10020310     libvcruntime:winapi_downlevel.obj
 0002:00000328       ?candidate_modules@?1??try_get_EventUnregister@@YAP6GK_K@ZXZ@4QBW4module_id@?A0x1821e63c@@B 10020328     libvcruntime:winapi_downlevel.obj
 0002:0000033c       ?candidate_modules@?1??try_get_EventWriteTransfer@@YAP6GK_KPBU_EVENT_DESCRIPTOR@@PBU_GUID@@2KPAU_EVENT_DATA_DESCRIPTOR@@@ZXZ@4QBW4module_id@?A0x1821e63c@@B 1002033c     libvcruntime:winapi_downlevel.obj
 0002:00000354       ?candidate_modules@?1??try_get_FlsAlloc@@YAP6GKP6GXPAX@Z@ZXZ@4QBW4module_id@?A0x1821e63c@@B 10020354     libvcruntime:winapi_downlevel.obj
 0002:00000368       ?candidate_modules@?1??try_get_FlsFree@@YAP6GHK@ZXZ@4QBW4module_id@?A0x1821e63c@@B 10020368     libvcruntime:winapi_downlevel.obj
 0002:00000378       ?candidate_modules@?1??try_get_FlsGetValue@@YAP6GPAXK@ZXZ@4QBW4module_id@?A0x1821e63c@@B 10020378     libvcruntime:winapi_downlevel.obj
 0002:0000038c       ?candidate_modules@?1??try_get_FlsSetValue@@YAP6GHKPAX@ZXZ@4QBW4module_id@?A0x1821e63c@@B 1002038c     libvcruntime:winapi_downlevel.obj
 0002:000003a0       ?candidate_modules@?1??try_get_InitializeCriticalSectionEx@@YAP6GHPAU_RTL_CRITICAL_SECTION@@KK@ZXZ@4QBW4module_id@?A0x1821e63c@@B 100203a0     libvcruntime:winapi_downlevel.obj
 0002:000003c8       ?tokenTable@@3QBQBDB       100203c8     libvcruntime:undname.obj
 0002:00000400       ?nameTable@@3QBQBDB        10020400     libvcruntime:undname.obj
 0002:00000544       ?rttiTable@@3QBQBDB        10020544     libvcruntime:undname.obj
 0002:00000ba0       _errtable                  10020ba0     libucrt:errno.obj
 0002:000010c8       ___acrt_initializers       100210c8     libucrt:initialization.obj
 0002:00001160       _module_names              10021160     libucrt:winapi_thunks.obj
 0002:00001600       ?candidate_modules@?1??try_get_AreFileApisANSI@@YAP6GHXZXZ@4QBW4module_id@?A0x352e5c4b@@B 10021600     libucrt:winapi_thunks.obj
 0002:00001614       ?candidate_modules@?1??try_get_FlsAlloc@@YAP6GKP6GXPAX@Z@ZXZ@4QBW4module_id@?A0x352e5c4b@@B 10021614     libucrt:winapi_thunks.obj
 0002:0000161c       ?candidate_modules@?1??try_get_FlsFree@@YAP6GHK@ZXZ@4QBW4module_id@?A0x352e5c4b@@B 1002161c     libucrt:winapi_thunks.obj
 0002:00001624       ?candidate_modules@?1??try_get_FlsGetValue@@YAP6GPAXK@ZXZ@4QBW4module_id@?A0x352e5c4b@@B 10021624     libucrt:winapi_thunks.obj
 0002:0000162c       ?candidate_modules@?1??try_get_FlsSetValue@@YAP6GHKPAX@ZXZ@4QBW4module_id@?A0x352e5c4b@@B 1002162c     libucrt:winapi_thunks.obj
 0002:00001634       ?candidate_modules@?1??try_get_GetActiveWindow@@YAP6GPAUHWND__@@XZXZ@4QBW4module_id@?A0x352e5c4b@@B 10021634     libucrt:winapi_thunks.obj
 0002:0000164c       ?candidate_modules@?1??try_get_GetCurrentPackageId@@YAP6GJPAIPAE@ZXZ@4QBW4module_id@?A0x352e5c4b@@B 1002164c     libucrt:winapi_thunks.obj
 0002:00001668       ?candidate_modules@?1??try_get_GetLastActivePopup@@YAP6GPAUHWND__@@PAU2@@ZXZ@4QBW4module_id@?A0x352e5c4b@@B 10021668     libucrt:winapi_thunks.obj
 0002:00001684       ?candidate_modules@?1??try_get_GetProcessWindowStation@@YAP6GPAUHWINSTA__@@XZXZ@4QBW4module_id@?A0x352e5c4b@@B 10021684     libucrt:winapi_thunks.obj
 0002:000016a4       ?candidate_modules@?1??try_get_GetUserObjectInformationW@@YAP6GHPAXH0KPAK@ZXZ@4QBW4module_id@?A0x352e5c4b@@B 100216a4     libucrt:winapi_thunks.obj
 0002:000016c8       ?candidate_modules@?1??try_get_InitializeCriticalSectionEx@@YAP6GHPAU_RTL_CRITICAL_SECTION@@KK@ZXZ@4QBW4module_id@?A0x352e5c4b@@B 100216c8     libucrt:winapi_thunks.obj
 0002:000016d0       ?candidate_modules@?1??try_get_LCMapStringEx@@YAP6GHPB_WK0HPA_WHPAU_nlsversioninfo@@PAXJ@ZXZ@4QBW4module_id@?A0x352e5c4b@@B 100216d0     libucrt:winapi_thunks.obj
 0002:000016e8       ?candidate_modules@?1??try_get_LocaleNameToLCID@@YAP6GKPB_WK@ZXZ@4QBW4module_id@?A0x352e5c4b@@B 100216e8     libucrt:winapi_thunks.obj
 0002:00001704       ?candidate_modules@?1??try_get_MessageBoxA@@YAP6GHPAUHWND__@@PBD1I@ZXZ@4QBW4module_id@?A0x352e5c4b@@B 10021704     libucrt:winapi_thunks.obj
 0002:00001718       ?candidate_modules@?1??try_get_MessageBoxW@@YAP6GHPAUHWND__@@PB_W1I@ZXZ@4QBW4module_id@?A0x352e5c4b@@B 10021718     libucrt:winapi_thunks.obj
 0002:00002024       __mb_locale_names          10022024     libucrt:mbctype.obj
 0002:00002870       _LcidToLocaleNameTable     10022870     libucrt:lcidtoname_downlevel.obj
 0002:00003998       _LocaleNameToIndexTable    10023998     libucrt:lcidtoname_downlevel.obj
 0002:000052e0       LOG_name                   100252e0     libucrt:log10.obj
 0002:000052f0       _One                       100252f0     libucrt:ceil_pentium4.obj
 0002:00005300       _Bns                       10025300     libucrt:ceil_pentium4.obj
 0002:00005310       _Zero                      10025310     libucrt:ceil_pentium4.obj
 0002:00005320       _S                         10025320     libucrt:ceil_pentium4.obj
 0002:00005330       _NegZero                   10025330     libucrt:ceil_pentium4.obj
 0002:00005340       emask                      10025340     libucrt:log10_pentium4.obj
 0002:00005350       CC                         10025350     libucrt:log10_pentium4.obj
 0002:00005360       Magic                      10025360     libucrt:log10_pentium4.obj
 0002:00005370       hi_mask                    10025370     libucrt:log10_pentium4.obj
 0002:00005380       LOG10_2                    10025380     libucrt:log10_pentium4.obj
 0002:00005390       place_L                    10025390     libucrt:log10_pentium4.obj
 0002:000053b0       One                        100253b0     libucrt:log10_pentium4.obj
 0002:000053c0       Zero                       100253c0     libucrt:log10_pentium4.obj
 0002:000053d0       Two52                      100253d0     libucrt:log10_pentium4.obj
 0002:000053e0       Infs                       100253e0     libucrt:log10_pentium4.obj
 0002:000053f0       NaN                        100253f0     libucrt:log10_pentium4.obj
 0002:00005400       coeff                      10025400     libucrt:log10_pentium4.obj
 0002:0000545e       _log2max                   1002545e     libucrt:87tran.obj
 0002:00005468       _smallarg                  10025468     libucrt:87tran.obj
 0002:00005472       _half                      10025472     libucrt:87tran.obj
 0002:000054be       One                        100254be     libucrt:87disp.obj
 0002:000054c6       Three                      100254c6     libucrt:87disp.obj
 0002:000054ce       XAMtoTagTab                100254ce     libucrt:87disp.obj
 0002:000054e0       One                        100254e0     libucrt:common.obj
 0002:000054f4       DblMax                     100254f4     libucrt:common.obj
 0002:000054fc       DblMin                     100254fc     libucrt:common.obj
 0002:00005504       IeeeAdjO                   10025504     libucrt:common.obj
 0002:0000550c       IeeeAdjU                   1002550c     libucrt:common.obj
 0002:00005514       _infinity                  10025514     libucrt:common.obj
 0002:0000551c       _zero                      1002551c     libucrt:common.obj
 0002:0000554c       _over                      1002554c     libucrt:fpctrl.obj
 0002:00005558       _under                     10025558     libucrt:fpctrl.obj
 0002:00005e28       ?_names@?1??_get_fname@@9@9 10025e28     libucrt:fpexcept.obj
 0002:00007d04       ?kLoad_js@@3PBDB           10027d04     WebWorkerThreads.obj
 0002:00007d08       ?kThread_nextTick_js@@3PBDB 10027d08     WebWorkerThreads.obj
 0002:00007d0c       ?kEvents_js@@3PBDB         10027d0c     WebWorkerThreads.obj
 0002:00007d10       ?kWorker_js@@3PBDB         10027d10     WebWorkerThreads.obj
 0002:00007d14       ?kCreatePool_js@@3PBDB     10027d14     WebWorkerThreads.obj
 0002:00007d80       _Int32ToUInt32             10027d80     LIBCMT:_ftol3_.obj
 0002:00007d88       _DP2to32                   10027d88     LIBCMT:_ftol3_.obj
 0002:00007d90       _MantissaMask              10027d90     LIBCMT:_ftol3_.obj
 0002:00007d98       _IntegerBit                10027d98     LIBCMT:_ftol3_.obj
 0002:00007da0       _SignBit64                 10027da0     LIBCMT:_ftol3_.obj
 0002:00007da8       _MinFP64                   10027da8     LIBCMT:_ftol3_.obj
 0002:00007db0       _MinInt64                  10027db0     LIBCMT:_ftol3_.obj
 0002:00007db8       _MaxInt64                  10027db8     LIBCMT:_ftol3_.obj
 0002:00007dc0       _MaxUInt64                 10027dc0     LIBCMT:_ftol3_.obj
 0002:00007dc8       _MaxFP32                   10027dc8     LIBCMT:_ftol3_.obj
 0002:00007dd0       _MinFP32                   10027dd0     LIBCMT:_ftol3_.obj
 0002:00007dd8       _MinSubInexact             10027dd8     LIBCMT:_ftol3_.obj
 0002:00007de0       _FpExcptTable              10027de0     LIBCMT:_ftol3_.obj
 0002:00007df0       _i1075                     10027df0     LIBCMT:_ftol3_.obj
 0002:00007df4       _i1087                     10027df4     LIBCMT:_ftol3_.obj
 0002:00007df8       _x0800                     10027df8     LIBCMT:_ftol3_.obj
 0002:00007dfc       _x17FF                     10027dfc     LIBCMT:_ftol3_.obj
 0002:00007e00       _CWMask                    10027e00     LIBCMT:_ftol3_.obj
 0002:00007fb0       ?_TlgEvent@?3??__telemetry_main_invoke_trigger@@9@4U<unnamed-type-_TlgEvent>@?3??1@YAXQAUHINSTANCE__@@@Z@B 10027fb0     libvcruntime:telemetry.obj
 0002:00007fec       ?_TlgEvent@?3??__telemetry_main_return_trigger@@9@4U<unnamed-type-_TlgEvent>@?3??1@YAXQAUHINSTANCE__@@@Z@B 10027fec     libvcruntime:telemetry.obj
 0002:00008027       ?_Tlg_Microsoft_CRTProviderProv_Meta@@3U<unnamed-type-_Tlg_Microsoft_CRTProviderProv_Meta>@@B 10028027     libvcruntime:telemetry.obj
 0002:000084c0       __sehtable$___scrt_is_nonwritable_in_current_image 100284c0     LIBCMT:utility.obj
 0002:000084e0       __sehtable$?dllmain_crt_process_attach@@YAHQAUHINSTANCE__@@QAX@Z 100284e0     LIBCMT:dll_dllmain.obj
 0002:00008500       __sehtable$?dllmain_crt_process_detach@@YAH_N@Z 10028500     LIBCMT:dll_dllmain.obj
 0002:00008520       __sehtable$?dllmain_dispatch@@YAHQAUHINSTANCE__@@KQAX@Z 10028520     LIBCMT:dll_dllmain.obj
 0002:000085d0       __sehtable$??$common_ftell@J@@YAJV__crt_stdio_stream@@@Z 100285d0     libucrt:ftell.obj
 0002:000085f0       __sehtable$??$common_fsopen@D@@YAPAU_iobuf@@QBD0H@Z 100285f0     libucrt:fopen.obj
 0002:00008610       __sehtable$_fflush         10028610     libucrt:fflush.obj
 0002:00008630       __sehtable$_common_flush_all 10028630     libucrt:fflush.obj
 0002:00008658       __sehtable$_fclose         10028658     libucrt:fclose.obj
 0002:00008678       __sehtable$?common_fseek@@YAHV__crt_stdio_stream@@_JH@Z 10028678     libucrt:fseek.obj
 0002:00008698       __sehtable$??$?RV<lambda_db08b09ef7aa9d4f8620ce68402612bc>@@AAV<lambda_4f2c1eaeead2a5fc776db5b62ea0fb9b>@@V<lambda_3ae262bc35d4ba6a3825c4f6bcaaf95c>@@@?$__crt_seh_guarded_call@H@@QAEH$$QAV<lambda_db08b09ef7aa9d4f8620ce68402612bc>@@AAV<lambda_4f2c1eaeead2a5fc776db5b62ea0fb9b>@@$$QAV<lambda_3ae262bc35d4ba6a3825c4f6bcaaf95c>@@@Z 10028698     libucrt:output.obj
 0002:000086b8       __sehtable$??$?RV<lambda_ab9923ffb5d694ec0d78876dd103e44f>@@AAV<lambda_481dd5778c961fbcd3b60b650e9b9dc4>@@V<lambda_7923d86c9e3f319b415918ec4b39749c>@@@?$__crt_seh_guarded_call@H@@QAEH$$QAV<lambda_ab9923ffb5d694ec0d78876dd103e44f>@@AAV<lambda_481dd5778c961fbcd3b60b650e9b9dc4>@@$$QAV<lambda_7923d86c9e3f319b415918ec4b39749c>@@@Z 100286b8     libucrt:output.obj
 0002:000086d8       __sehtable$_rewind         100286d8     libucrt:rewind.obj
 0002:000086f8       __sehtable$_fputc          100286f8     libucrt:fputc.obj
 0002:00008718       __sehtable$??$?RV<lambda_b0cac3301889906f8da68b04e3d9a7f4>@@AAV<lambda_9a20e10065b92b5193c3597a66cba9d4>@@V<lambda_24b35df97fd4c1fecac72a72d95cc146>@@@?$__crt_seh_guarded_call@H@@QAEH$$QAV<lambda_b0cac3301889906f8da68b04e3d9a7f4>@@AAV<lambda_9a20e10065b92b5193c3597a66cba9d4>@@$$QAV<lambda_24b35df97fd4c1fecac72a72d95cc146>@@@Z 10028718     libucrt:fputs.obj
 0002:00008738       __sehtable$_fread_s        10028738     libucrt:fread.obj
 0002:00008758       __sehtable$__query_new_handler 10028758     libucrt:new_handler.obj
 0002:00008778       __sehtable$?common_exit@@YAXHW4_crt_exit_cleanup_mode@@W4_crt_exit_return_mode@@@Z 10028778     libucrt:exit.obj
 0002:000087a0       __sehtable$??$?RV<lambda_800076c951b434888f4765a74a194fcc>@@AAV<lambda_4e60a939b0d047cfe11ddc22648dfba9>@@V<lambda_6dbb1268764f43b569ce7b67e331d33a>@@@?$__crt_seh_guarded_call@H@@QAEH$$QAV<lambda_800076c951b434888f4765a74a194fcc>@@AAV<lambda_4e60a939b0d047cfe11ddc22648dfba9>@@$$QAV<lambda_6dbb1268764f43b569ce7b67e331d33a>@@@Z 100287a0     libucrt:onexit.obj
 0002:000087c0       __sehtable$??$?RV<lambda_995298e7d72eb4c2aab26c0585b3abe5>@@AAV<lambda_275893d493268fdec8709772e3fcec0e>@@V<lambda_293819299cbf9a7022e18b56a874bb5c>@@@?$__crt_seh_guarded_call@H@@QAEH$$QAV<lambda_995298e7d72eb4c2aab26c0585b3abe5>@@AAV<lambda_275893d493268fdec8709772e3fcec0e>@@$$QAV<lambda_293819299cbf9a7022e18b56a874bb5c>@@@Z 100287c0     libucrt:onexit.obj
 0002:000087e0       __sehtable$_terminate      100287e0     libucrt:terminate.obj
 0002:00008800       __sehtable$??$common_lseek@J@@YAJHJH@Z 10028800     libucrt:lseek.obj
 0002:00008820       __sehtable$??$common_lseek@_J@@YA_JH_JH@Z 10028820     libucrt:lseek.obj
 0002:00008840       __sehtable$__read          10028840     libucrt:read.obj
 0002:00008860       __sehtable$___acrt_initialize_lowio 10028860     libucrt:ioinit.obj
 0002:00008880       __sehtable$?__acrt_stdio_allocate_stream@@YA?AV__crt_stdio_stream@@XZ 10028880     libucrt:stream.obj
 0002:000088a0       __sehtable$__fcloseall     100288a0     libucrt:closeall.obj
 0002:000088c0       __sehtable$??$?RV<lambda_61cee617f5178ae960314fd4d05640a0>@@AAV<lambda_6978c1fb23f02e42e1d9e99668cc68aa>@@V<lambda_9cd88cf8ad10232537feb2133f08c833>@@@?$__crt_seh_guarded_call@H@@QAEH$$QAV<lambda_61cee617f5178ae960314fd4d05640a0>@@AAV<lambda_6978c1fb23f02e42e1d9e99668cc68aa>@@$$QAV<lambda_9cd88cf8ad10232537feb2133f08c833>@@@Z 100288c0     libucrt:commit.obj
 0002:000088e0       __sehtable$__write         100288e0     libucrt:write.obj
 0002:00008900       __sehtable$??$?RV<lambda_123407a5e2ac06da108355a851863b7a>@@AAV<lambda_2fe9b910cf3cbf4a0ab98a02ba45b3ec>@@V<lambda_ae55bdf541ad94d75914d381c370e64d>@@@?$__crt_seh_guarded_call@H@@QAEH$$QAV<lambda_123407a5e2ac06da108355a851863b7a>@@AAV<lambda_2fe9b910cf3cbf4a0ab98a02ba45b3ec>@@$$QAV<lambda_ae55bdf541ad94d75914d381c370e64d>@@@Z 10028900     libucrt:close.obj
 0002:00008920       __sehtable$??$?RV<lambda_9df27f884b057bc3edfc946cb5b7cf47>@@AAV<lambda_e69574bed617af4e071282c136b37893>@@V<lambda_cc0d902bcbbeb830f749456577db4721>@@@?$__crt_seh_guarded_call@X@@QAEX$$QAV<lambda_9df27f884b057bc3edfc946cb5b7cf47>@@AAV<lambda_e69574bed617af4e071282c136b37893>@@$$QAV<lambda_cc0d902bcbbeb830f749456577db4721>@@@Z 10028920     libucrt:per_thread_data.obj
 0002:00008940       __sehtable$??$?RV<lambda_3518db117f0e7cdb002338c5d3c47b6c>@@AAV<lambda_b2ea41f6bbb362cd97d94c6828d90b61>@@V<lambda_abdedf541bb04549bc734292b4a045d4>@@@?$__crt_seh_guarded_call@X@@QAEX$$QAV<lambda_3518db117f0e7cdb002338c5d3c47b6c>@@AAV<lambda_b2ea41f6bbb362cd97d94c6828d90b61>@@$$QAV<lambda_abdedf541bb04549bc734292b4a045d4>@@@Z 10028940     libucrt:per_thread_data.obj
 0002:00008960       __sehtable$??$?RV<lambda_51b6e8b1eb166f2a3faf91f424b38130>@@AAV<lambda_6250bd4b2a391816dd638c3bf72b0bcb>@@V<lambda_0b5a4a3e68152e1d9b943535f5f47bed>@@@?$__crt_seh_guarded_call@X@@QAEX$$QAV<lambda_51b6e8b1eb166f2a3faf91f424b38130>@@AAV<lambda_6250bd4b2a391816dd638c3bf72b0bcb>@@$$QAV<lambda_0b5a4a3e68152e1d9b943535f5f47bed>@@@Z 10028960     libucrt:per_thread_data.obj
 0002:00008980       __sehtable$??$?RV<lambda_5b71d36f03204c0beab531769a5b5694>@@AAV<lambda_be2b3da3f62db62e9dad5dc70221a656>@@V<lambda_8f9ce462984622f9bf76b59e2aaaf805>@@@?$__crt_seh_guarded_call@X@@QAEX$$QAV<lambda_5b71d36f03204c0beab531769a5b5694>@@AAV<lambda_be2b3da3f62db62e9dad5dc70221a656>@@$$QAV<lambda_8f9ce462984622f9bf76b59e2aaaf805>@@@Z 10028980     libucrt:per_thread_data.obj
 0002:000089a0       __sehtable$___acrt_uninitialize_locale 100289a0     libucrt:wsetlocale.obj
 0002:000089c0       __sehtable$??$?RV<lambda_d92cfe8357b99225085016881b624cb0>@@AAV<lambda_b721fa326cdb32351d23dfa67958c160>@@V<lambda_42d75b0848218ec137fa420c8ba9fdf9>@@@?$__crt_seh_guarded_call@H@@QAEH$$QAV<lambda_d92cfe8357b99225085016881b624cb0>@@AAV<lambda_b721fa326cdb32351d23dfa67958c160>@@$$QAV<lambda_42d75b0848218ec137fa420c8ba9fdf9>@@@Z 100289c0     libucrt:setvbuf.obj
 0002:000089e0       __sehtable$_raise          100289e0     libucrt:signal.obj
 0002:00008a00       __sehtable$??$?RV<lambda_a048d3beccc847880fc8490e18b82769>@@AAV<lambda_ec61778202f4f5fc7e7711acc23c3bca>@@V<lambda_f7496a158712204296dd6628a163878e>@@@?$__crt_seh_guarded_call@P6AXH@Z@@QAEP6AXH@Z$$QAV<lambda_a048d3beccc847880fc8490e18b82769>@@AAV<lambda_ec61778202f4f5fc7e7711acc23c3bca>@@$$QAV<lambda_f7496a158712204296dd6628a163878e>@@@Z 10028a00     libucrt:signal.obj
 0002:00008a20       __sehtable$___acrt_update_thread_multibyte_data 10028a20     libucrt:mbctype.obj
 0002:00008a40       __sehtable$??$?RV<lambda_978dc153c237d78434369da87b74ff60>@@AAV<lambda_ad1ced32f4ac17aa236e5ef05d6b3b7c>@@V<lambda_4a8533e2866a575feecb8298ce776b0d>@@@?$__crt_seh_guarded_call@X@@QAEX$$QAV<lambda_978dc153c237d78434369da87b74ff60>@@AAV<lambda_ad1ced32f4ac17aa236e5ef05d6b3b7c>@@$$QAV<lambda_4a8533e2866a575feecb8298ce776b0d>@@@Z 10028a40     libucrt:mbctype.obj
 0002:00008a60       __sehtable$__alloc_osfhnd  10028a60     libucrt:osfinfo.obj
 0002:00008a80       __sehtable$___acrt_lowio_ensure_fh_exists 10028a80     libucrt:osfinfo.obj
 0002:00008aa0       __sehtable$??$common_sopen_dispatch@D@@YAHQBDHHHQAHH@Z 10028aa0     libucrt:open.obj
 0002:00008ac0       __sehtable$___acrt_update_thread_locale_data 10028ac0     libucrt:locale_refcounting.obj
 0002:00008ae0       __sehtable$__IsNonwritableInCurrentImage 10028ae0     LIBCMT:pesect.obj
 0002:0000b3b0       .edata                     1002b3b0     WebWorkerThreads.exp
 0002:0000b3d8       rgpv                       1002b3d8     WebWorkerThreads.exp
 0002:0000b8c4       rgszName                   1002b8c4     WebWorkerThreads.exp
 0002:0000bdb0       rgwOrd                     1002bdb0     WebWorkerThreads.exp
 0002:0000c026       szName                     1002c026     WebWorkerThreads.exp
 0002:0000c03c       $N00001                    1002c03c     WebWorkerThreads.exp
 0002:0000c067       $N00002                    1002c067     WebWorkerThreads.exp
 0002:0000c08b       $N00003                    1002c08b     WebWorkerThreads.exp
 0002:0000c0b3       $N00004                    1002c0b3     WebWorkerThreads.exp
 0002:0000c0d6       $N00005                    1002c0d6     WebWorkerThreads.exp
 0002:0000c0ff       $N00006                    1002c0ff     WebWorkerThreads.exp
 0002:0000c12a       $N00007                    1002c12a     WebWorkerThreads.exp
 0002:0000c14f       $N00008                    1002c14f     WebWorkerThreads.exp
 0002:0000c182       $N00009                    1002c182     WebWorkerThreads.exp
 0002:0000c1b6       $N00010                    1002c1b6     WebWorkerThreads.exp
 0002:0000c1e6       $N00011                    1002c1e6     WebWorkerThreads.exp
 0002:0000c212       $N00012                    1002c212     WebWorkerThreads.exp
 0002:0000c238       $N00013                    1002c238     WebWorkerThreads.exp
 0002:0000c271       $N00014                    1002c271     WebWorkerThreads.exp
 0002:0000c2a3       $N00015                    1002c2a3     WebWorkerThreads.exp
 0002:0000c2cf       $N00016                    1002c2cf     WebWorkerThreads.exp
 0002:0000c2ff       $N00017                    1002c2ff     WebWorkerThreads.exp
 0002:0000c319       $N00018                    1002c319     WebWorkerThreads.exp
 0002:0000c33b       $N00019                    1002c33b     WebWorkerThreads.exp
 0002:0000c367       $N00020                    1002c367     WebWorkerThreads.exp
 0002:0000c38d       $N00021                    1002c38d     WebWorkerThreads.exp
 0002:0000c3af       $N00022                    1002c3af     WebWorkerThreads.exp
 0002:0000c3d3       $N00023                    1002c3d3     WebWorkerThreads.exp
 0002:0000c3f7       $N00024                    1002c3f7     WebWorkerThreads.exp
 0002:0000c41a       $N00025                    1002c41a     WebWorkerThreads.exp
 0002:0000c432       $N00026                    1002c432     WebWorkerThreads.exp
 0002:0000c465       $N00027                    1002c465     WebWorkerThreads.exp
 0002:0000c495       $N00028                    1002c495     WebWorkerThreads.exp
 0002:0000c4bb       $N00029                    1002c4bb     WebWorkerThreads.exp
 0002:0000c4ed       $N00030                    1002c4ed     WebWorkerThreads.exp
 0002:0000c519       $N00031                    1002c519     WebWorkerThreads.exp
 0002:0000c549       $N00032                    1002c549     WebWorkerThreads.exp
 0002:0000c56f       $N00033                    1002c56f     WebWorkerThreads.exp
 0002:0000c58b       $N00034                    1002c58b     WebWorkerThreads.exp
 0002:0000c5b8       $N00035                    1002c5b8     WebWorkerThreads.exp
 0002:0000c5e3       $N00036                    1002c5e3     WebWorkerThreads.exp
 0002:0000c614       $N00037                    1002c614     WebWorkerThreads.exp
 0002:0000c635       $N00038                    1002c635     WebWorkerThreads.exp
 0002:0000c654       $N00039                    1002c654     WebWorkerThreads.exp
 0002:0000c67b       $N00040                    1002c67b     WebWorkerThreads.exp
 0002:0000c6a0       $N00041                    1002c6a0     WebWorkerThreads.exp
 0002:0000c6cb       $N00042                    1002c6cb     WebWorkerThreads.exp
 0002:0000c6f4       $N00043                    1002c6f4     WebWorkerThreads.exp
 0002:0000c717       $N00044                    1002c717     WebWorkerThreads.exp
 0002:0000c738       $N00045                    1002c738     WebWorkerThreads.exp
 0002:0000c761       $N00046                    1002c761     WebWorkerThreads.exp
 0002:0000c788       $N00047                    1002c788     WebWorkerThreads.exp
 0002:0000c7ba       $N00048                    1002c7ba     WebWorkerThreads.exp
 0002:0000c7ea       $N00049                    1002c7ea     WebWorkerThreads.exp
 0002:0000c822       $N00050                    1002c822     WebWorkerThreads.exp
 0002:0000c858       $N00051                    1002c858     WebWorkerThreads.exp
 0002:0000c87b       $N00052                    1002c87b     WebWorkerThreads.exp
 0002:0000c89c       $N00053                    1002c89c     WebWorkerThreads.exp
 0002:0000c8bc       $N00054                    1002c8bc     WebWorkerThreads.exp
 0002:0000c8da       $N00055                    1002c8da     WebWorkerThreads.exp
 0002:0000c8fe       $N00056                    1002c8fe     WebWorkerThreads.exp
 0002:0000c920       $N00057                    1002c920     WebWorkerThreads.exp
 0002:0000c940       $N00058                    1002c940     WebWorkerThreads.exp
 0002:0000c95e       $N00059                    1002c95e     WebWorkerThreads.exp
 0002:0000c983       $N00060                    1002c983     WebWorkerThreads.exp
 0002:0000c9a6       $N00061                    1002c9a6     WebWorkerThreads.exp
 0002:0000c9ca       $N00062                    1002c9ca     WebWorkerThreads.exp
 0002:0000c9ec       $N00063                    1002c9ec     WebWorkerThreads.exp
 0002:0000ca1d       $N00064                    1002ca1d     WebWorkerThreads.exp
 0002:0000ca5c       $N00065                    1002ca5c     WebWorkerThreads.exp
 0002:0000ca84       $N00066                    1002ca84     WebWorkerThreads.exp
 0002:0000caaa       $N00067                    1002caaa     WebWorkerThreads.exp
 0002:0000cad2       $N00068                    1002cad2     WebWorkerThreads.exp
 0002:0000caf8       $N00069                    1002caf8     WebWorkerThreads.exp
 0002:0000cb1c       $N00070                    1002cb1c     WebWorkerThreads.exp
 0002:0000cb3e       $N00071                    1002cb3e     WebWorkerThreads.exp
 0002:0000cb6a       $N00072                    1002cb6a     WebWorkerThreads.exp
 0002:0000cb94       $N00073                    1002cb94     WebWorkerThreads.exp
 0002:0000cbc4       $N00074                    1002cbc4     WebWorkerThreads.exp
 0002:0000cbf2       $N00075                    1002cbf2     WebWorkerThreads.exp
 0002:0000cc21       $N00076                    1002cc21     WebWorkerThreads.exp
 0002:0000cc4e       $N00077                    1002cc4e     WebWorkerThreads.exp
 0002:0000cc78       $N00078                    1002cc78     WebWorkerThreads.exp
 0002:0000cca0       $N00079                    1002cca0     WebWorkerThreads.exp
 0002:0000ccc6       $N00080                    1002ccc6     WebWorkerThreads.exp
 0002:0000ccea       $N00081                    1002ccea     WebWorkerThreads.exp
 0002:0000cd0b       $N00082                    1002cd0b     WebWorkerThreads.exp
 0002:0000cd2a       $N00083                    1002cd2a     WebWorkerThreads.exp
 0002:0000cd50       $N00084                    1002cd50     WebWorkerThreads.exp
 0002:0000cd74       $N00085                    1002cd74     WebWorkerThreads.exp
 0002:0000cd99       $N00086                    1002cd99     WebWorkerThreads.exp
 0002:0000cdbc       $N00087                    1002cdbc     WebWorkerThreads.exp
 0002:0000cddf       $N00088                    1002cddf     WebWorkerThreads.exp
 0002:0000ce00       $N00089                    1002ce00     WebWorkerThreads.exp
 0002:0000ce20       $N00090                    1002ce20     WebWorkerThreads.exp
 0002:0000ce3e       $N00091                    1002ce3e     WebWorkerThreads.exp
 0002:0000ce5d       $N00092                    1002ce5d     WebWorkerThreads.exp
 0002:0000ce7a       $N00093                    1002ce7a     WebWorkerThreads.exp
 0002:0000ce9d       $N00094                    1002ce9d     WebWorkerThreads.exp
 0002:0000cebe       $N00095                    1002cebe     WebWorkerThreads.exp
 0002:0000cede       $N00096                    1002cede     WebWorkerThreads.exp
 0002:0000cefc       $N00097                    1002cefc     WebWorkerThreads.exp
 0002:0000cf25       $N00098                    1002cf25     WebWorkerThreads.exp
 0002:0000cf4c       $N00099                    1002cf4c     WebWorkerThreads.exp
 0002:0000cf6e       $N00100                    1002cf6e     WebWorkerThreads.exp
 0002:0000cf8e       $N00101                    1002cf8e     WebWorkerThreads.exp
 0002:0000cfb6       $N00102                    1002cfb6     WebWorkerThreads.exp
 0002:0000cfdc       $N00103                    1002cfdc     WebWorkerThreads.exp
 0002:0000cffe       $N00104                    1002cffe     WebWorkerThreads.exp
 0002:0000d01e       $N00105                    1002d01e     WebWorkerThreads.exp
 0002:0000d048       $N00106                    1002d048     WebWorkerThreads.exp
 0002:0000d070       $N00107                    1002d070     WebWorkerThreads.exp
 0002:0000d0a1       $N00108                    1002d0a1     WebWorkerThreads.exp
 0002:0000d0c6       $N00109                    1002d0c6     WebWorkerThreads.exp
 0002:0000d0e9       $N00110                    1002d0e9     WebWorkerThreads.exp
 0002:0000d10c       $N00111                    1002d10c     WebWorkerThreads.exp
 0002:0000d12d       $N00112                    1002d12d     WebWorkerThreads.exp
 0002:0000d14f       $N00113                    1002d14f     WebWorkerThreads.exp
 0002:0000d16f       $N00114                    1002d16f     WebWorkerThreads.exp
 0002:0000d19d       $N00115                    1002d19d     WebWorkerThreads.exp
 0002:0000d1c9       $N00116                    1002d1c9     WebWorkerThreads.exp
 0002:0000d1f8       $N00117                    1002d1f8     WebWorkerThreads.exp
 0002:0000d225       $N00118                    1002d225     WebWorkerThreads.exp
 0002:0000d247       $N00119                    1002d247     WebWorkerThreads.exp
 0002:0000d267       $N00120                    1002d267     WebWorkerThreads.exp
 0002:0000d291       $N00121                    1002d291     WebWorkerThreads.exp
 0002:0000d2b9       $N00122                    1002d2b9     WebWorkerThreads.exp
 0002:0000d2d8       $N00123                    1002d2d8     WebWorkerThreads.exp
 0002:0000d2f5       $N00124                    1002d2f5     WebWorkerThreads.exp
 0002:0000d322       $N00125                    1002d322     WebWorkerThreads.exp
 0002:0000d34d       $N00126                    1002d34d     WebWorkerThreads.exp
 0002:0000d372       $N00127                    1002d372     WebWorkerThreads.exp
 0002:0000d395       $N00128                    1002d395     WebWorkerThreads.exp
 0002:0000d3bb       $N00129                    1002d3bb     WebWorkerThreads.exp
 0002:0000d3df       $N00130                    1002d3df     WebWorkerThreads.exp
 0002:0000d405       $N00131                    1002d405     WebWorkerThreads.exp
 0002:0000d429       $N00132                    1002d429     WebWorkerThreads.exp
 0002:0000d450       $N00133                    1002d450     WebWorkerThreads.exp
 0002:0000d475       $N00134                    1002d475     WebWorkerThreads.exp
 0002:0000d497       $N00135                    1002d497     WebWorkerThreads.exp
 0002:0000d4b7       $N00136                    1002d4b7     WebWorkerThreads.exp
 0002:0000d4df       $N00137                    1002d4df     WebWorkerThreads.exp
 0002:0000d505       $N00138                    1002d505     WebWorkerThreads.exp
 0002:0000d527       $N00139                    1002d527     WebWorkerThreads.exp
 0002:0000d547       $N00140                    1002d547     WebWorkerThreads.exp
 0002:0000d56f       $N00141                    1002d56f     WebWorkerThreads.exp
 0002:0000d595       $N00142                    1002d595     WebWorkerThreads.exp
 0002:0000d5b9       $N00143                    1002d5b9     WebWorkerThreads.exp
 0002:0000d5db       $N00144                    1002d5db     WebWorkerThreads.exp
 0002:0000d601       $N00145                    1002d601     WebWorkerThreads.exp
 0002:0000d625       $N00146                    1002d625     WebWorkerThreads.exp
 0002:0000d64b       $N00147                    1002d64b     WebWorkerThreads.exp
 0002:0000d66f       $N00148                    1002d66f     WebWorkerThreads.exp
 0002:0000d696       $N00149                    1002d696     WebWorkerThreads.exp
 0002:0000d6bb       $N00150                    1002d6bb     WebWorkerThreads.exp
 0002:0000d6dd       $N00151                    1002d6dd     WebWorkerThreads.exp
 0002:0000d6fd       $N00152                    1002d6fd     WebWorkerThreads.exp
 0002:0000d724       $N00153                    1002d724     WebWorkerThreads.exp
 0002:0000d749       $N00154                    1002d749     WebWorkerThreads.exp
 0002:0000d76f       $N00155                    1002d76f     WebWorkerThreads.exp
 0002:0000d793       $N00156                    1002d793     WebWorkerThreads.exp
 0002:0000d7c0       $N00157                    1002d7c0     WebWorkerThreads.exp
 0002:0000d7eb       $N00158                    1002d7eb     WebWorkerThreads.exp
 0002:0000d814       $N00159                    1002d814     WebWorkerThreads.exp
 0002:0000d83b       $N00160                    1002d83b     WebWorkerThreads.exp
 0002:0000d85d       $N00161                    1002d85d     WebWorkerThreads.exp
 0002:0000d87b       $N00162                    1002d87b     WebWorkerThreads.exp
 0002:0000d897       $N00163                    1002d897     WebWorkerThreads.exp
 0002:0000d8b8       $N00164                    1002d8b8     WebWorkerThreads.exp
 0002:0000d8d7       $N00165                    1002d8d7     WebWorkerThreads.exp
 0002:0000d8f8       $N00166                    1002d8f8     WebWorkerThreads.exp
 0002:0000d919       $N00167                    1002d919     WebWorkerThreads.exp
 0002:0000d936       $N00168                    1002d936     WebWorkerThreads.exp
 0002:0000d953       $N00169                    1002d953     WebWorkerThreads.exp
 0002:0000d975       $N00170                    1002d975     WebWorkerThreads.exp
 0002:0000d98b       $N00171                    1002d98b     WebWorkerThreads.exp
 0002:0000d9bc       $N00172                    1002d9bc     WebWorkerThreads.exp
 0002:0000d9ea       $N00173                    1002d9ea     WebWorkerThreads.exp
 0002:0000da0e       $N00174                    1002da0e     WebWorkerThreads.exp
 0002:0000da3e       $N00175                    1002da3e     WebWorkerThreads.exp
 0002:0000da68       $N00176                    1002da68     WebWorkerThreads.exp
 0002:0000da96       $N00177                    1002da96     WebWorkerThreads.exp
 0002:0000daba       $N00178                    1002daba     WebWorkerThreads.exp
 0002:0000db12       $N00179                    1002db12     WebWorkerThreads.exp
 0002:0000db6b       $N00180                    1002db6b     WebWorkerThreads.exp
 0002:0000dba8       $N00181                    1002dba8     WebWorkerThreads.exp
 0002:0000dbd4       $N00182                    1002dbd4     WebWorkerThreads.exp
 0002:0000dc06       $N00183                    1002dc06     WebWorkerThreads.exp
 0002:0000dc3a       $N00184                    1002dc3a     WebWorkerThreads.exp
 0002:0000dc60       $N00185                    1002dc60     WebWorkerThreads.exp
 0002:0000dc8c       $N00186                    1002dc8c     WebWorkerThreads.exp
 0002:0000dcbc       $N00187                    1002dcbc     WebWorkerThreads.exp
 0002:0000dce4       $N00188                    1002dce4     WebWorkerThreads.exp
 0002:0000dd12       $N00189                    1002dd12     WebWorkerThreads.exp
 0002:0000dd3b       $N00190                    1002dd3b     WebWorkerThreads.exp
 0002:0000dd60       $N00191                    1002dd60     WebWorkerThreads.exp
 0002:0000dd89       $N00192                    1002dd89     WebWorkerThreads.exp
 0002:0000ddb6       $N00193                    1002ddb6     WebWorkerThreads.exp
 0002:0000dde3       $N00194                    1002dde3     WebWorkerThreads.exp
 0002:0000de0c       $N00195                    1002de0c     WebWorkerThreads.exp
 0002:0000de37       $N00196                    1002de37     WebWorkerThreads.exp
 0002:0000de5d       $N00197                    1002de5d     WebWorkerThreads.exp
 0002:0000de88       $N00198                    1002de88     WebWorkerThreads.exp
 0002:0000deb2       $N00199                    1002deb2     WebWorkerThreads.exp
 0002:0000deda       $N00200                    1002deda     WebWorkerThreads.exp
 0002:0000defe       $N00201                    1002defe     WebWorkerThreads.exp
 0002:0000df23       $N00202                    1002df23     WebWorkerThreads.exp
 0002:0000df4a       $N00203                    1002df4a     WebWorkerThreads.exp
 0002:0000df77       $N00204                    1002df77     WebWorkerThreads.exp
 0002:0000df9e       $N00205                    1002df9e     WebWorkerThreads.exp
 0002:0000dfc6       $N00206                    1002dfc6     WebWorkerThreads.exp
 0002:0000dfed       $N00207                    1002dfed     WebWorkerThreads.exp
 0002:0000e01f       $N00208                    1002e01f     WebWorkerThreads.exp
 0002:0000e043       $N00209                    1002e043     WebWorkerThreads.exp
 0002:0000e075       $N00210                    1002e075     WebWorkerThreads.exp
 0002:0000e09c       $N00211                    1002e09c     WebWorkerThreads.exp
 0002:0000e0c9       $N00212                    1002e0c9     WebWorkerThreads.exp
 0002:0000e0f0       $N00213                    1002e0f0     WebWorkerThreads.exp
 0002:0000e11d       $N00214                    1002e11d     WebWorkerThreads.exp
 0002:0000e148       $N00215                    1002e148     WebWorkerThreads.exp
 0002:0000e174       $N00216                    1002e174     WebWorkerThreads.exp
 0002:0000e19b       $N00217                    1002e19b     WebWorkerThreads.exp
 0002:0000e1c7       $N00218                    1002e1c7     WebWorkerThreads.exp
 0002:0000e1f2       $N00219                    1002e1f2     WebWorkerThreads.exp
 0002:0000e224       $N00220                    1002e224     WebWorkerThreads.exp
 0002:0000e24c       $N00221                    1002e24c     WebWorkerThreads.exp
 0002:0000e27a       $N00222                    1002e27a     WebWorkerThreads.exp
 0002:0000e2b0       $N00223                    1002e2b0     WebWorkerThreads.exp
 0002:0000e2ee       $N00224                    1002e2ee     WebWorkerThreads.exp
 0002:0000e327       $N00225                    1002e327     WebWorkerThreads.exp
 0002:0000e360       $N00226                    1002e360     WebWorkerThreads.exp
 0002:0000e3bb       $N00227                    1002e3bb     WebWorkerThreads.exp
 0002:0000e3da       $N00228                    1002e3da     WebWorkerThreads.exp
 0002:0000e417       $N00229                    1002e417     WebWorkerThreads.exp
 0002:0000e460       $N00230                    1002e460     WebWorkerThreads.exp
 0002:0000e4c1       $N00231                    1002e4c1     WebWorkerThreads.exp
 0002:0000e4da       $N00232                    1002e4da     WebWorkerThreads.exp
 0002:0000e517       $N00233                    1002e517     WebWorkerThreads.exp
 0002:0000e546       $N00234                    1002e546     WebWorkerThreads.exp
 0002:0000e5be       $N00235                    1002e5be     WebWorkerThreads.exp
 0002:0000e5e6       $N00236                    1002e5e6     WebWorkerThreads.exp
 0002:0000e62e       $N00237                    1002e62e     WebWorkerThreads.exp
 0002:0000e644       $N00238                    1002e644     WebWorkerThreads.exp
 0002:0000e677       $N00239                    1002e677     WebWorkerThreads.exp
 0002:0000e691       $N00240                    1002e691     WebWorkerThreads.exp
 0002:0000e6ad       $N00241                    1002e6ad     WebWorkerThreads.exp
 0002:0000e6cc       $N00242                    1002e6cc     WebWorkerThreads.exp
 0002:0000e701       $N00243                    1002e701     WebWorkerThreads.exp
 0002:0000e741       $N00244                    1002e741     WebWorkerThreads.exp
 0002:0000e799       $N00245                    1002e799     WebWorkerThreads.exp
 0002:0000e7b8       $N00246                    1002e7b8     WebWorkerThreads.exp
 0002:0000e7d9       $N00247                    1002e7d9     WebWorkerThreads.exp
 0002:0000e7fd       $N00248                    1002e7fd     WebWorkerThreads.exp
 0002:0000e849       $N00249                    1002e849     WebWorkerThreads.exp
 0002:0000e895       $N00250                    1002e895     WebWorkerThreads.exp
 0002:0000e8ee       $N00251                    1002e8ee     WebWorkerThreads.exp
 0002:0000e949       $N00252                    1002e949     WebWorkerThreads.exp
 0002:0000e988       $N00253                    1002e988     WebWorkerThreads.exp
 0002:0000e9e0       $N00254                    1002e9e0     WebWorkerThreads.exp
 0002:0000ea3c       $N00255                    1002ea3c     WebWorkerThreads.exp
 0002:0000ea5c       $N00256                    1002ea5c     WebWorkerThreads.exp
 0002:0000ead3       $N00257                    1002ead3     WebWorkerThreads.exp
 0002:0000eb00       $N00258                    1002eb00     WebWorkerThreads.exp
 0002:0000ec14       $N00259                    1002ec14     WebWorkerThreads.exp
 0002:0000ec42       $N00260                    1002ec42     WebWorkerThreads.exp
 0002:0000ec78       $N00261                    1002ec78     WebWorkerThreads.exp
 0002:0000ecb2       $N00262                    1002ecb2     WebWorkerThreads.exp
 0002:0000ece4       $N00263                    1002ece4     WebWorkerThreads.exp
 0002:0000ed1a       $N00264                    1002ed1a     WebWorkerThreads.exp
 0002:0000ed4e       $N00265                    1002ed4e     WebWorkerThreads.exp
 0002:0000ed82       $N00266                    1002ed82     WebWorkerThreads.exp
 0002:0000edb6       $N00267                    1002edb6     WebWorkerThreads.exp
 0002:0000edea       $N00268                    1002edea     WebWorkerThreads.exp
 0002:0000ee2c       $N00269                    1002ee2c     WebWorkerThreads.exp
 0002:0000ee7c       $N00270                    1002ee7c     WebWorkerThreads.exp
 0002:0000eed5       $N00271                    1002eed5     WebWorkerThreads.exp
 0002:0000ef26       $N00272                    1002ef26     WebWorkerThreads.exp
 0002:0000ef6a       $N00273                    1002ef6a     WebWorkerThreads.exp
 0002:0000eff0       $N00274                    1002eff0     WebWorkerThreads.exp
 0002:0000f013       $N00275                    1002f013     WebWorkerThreads.exp
 0002:0000f040       $N00276                    1002f040     WebWorkerThreads.exp
 0002:0000f070       $N00277                    1002f070     WebWorkerThreads.exp
 0002:0000f0a5       $N00278                    1002f0a5     WebWorkerThreads.exp
 0002:0000f0cc       $N00279                    1002f0cc     WebWorkerThreads.exp
 0002:0000f0f3       $N00280                    1002f0f3     WebWorkerThreads.exp
 0002:0000f11e       $N00281                    1002f11e     WebWorkerThreads.exp
 0002:0000f149       $N00282                    1002f149     WebWorkerThreads.exp
 0002:0000f186       $N00283                    1002f186     WebWorkerThreads.exp
 0002:0000f1bb       $N00284                    1002f1bb     WebWorkerThreads.exp
 0002:0000f1df       $N00285                    1002f1df     WebWorkerThreads.exp
 0002:0000f1ff       $N00286                    1002f1ff     WebWorkerThreads.exp
 0002:0000f235       $N00287                    1002f235     WebWorkerThreads.exp
 0002:0000f269       $N00288                    1002f269     WebWorkerThreads.exp
 0002:0000f29c       $N00289                    1002f29c     WebWorkerThreads.exp
 0002:0000f2d0       $N00290                    1002f2d0     WebWorkerThreads.exp
 0002:0000f2ed       $N00291                    1002f2ed     WebWorkerThreads.exp
 0002:0000f31b       $N00292                    1002f31b     WebWorkerThreads.exp
 0002:0000f348       $N00293                    1002f348     WebWorkerThreads.exp
 0002:0000f37b       $N00294                    1002f37b     WebWorkerThreads.exp
 0002:0000f3aa       $N00295                    1002f3aa     WebWorkerThreads.exp
 0002:0000f3de       $N00296                    1002f3de     WebWorkerThreads.exp
 0002:0000f406       $N00297                    1002f406     WebWorkerThreads.exp
 0002:0000f43b       $N00298                    1002f43b     WebWorkerThreads.exp
 0002:0000f476       $N00299                    1002f476     WebWorkerThreads.exp
 0002:0000f4af       $N00300                    1002f4af     WebWorkerThreads.exp
 0002:0000f4e7       $N00301                    1002f4e7     WebWorkerThreads.exp
 0002:0000f520       $N00302                    1002f520     WebWorkerThreads.exp
 0002:0000f553       $N00303                    1002f553     WebWorkerThreads.exp
 0002:0000f599       $N00304                    1002f599     WebWorkerThreads.exp
 0002:0000f5bd       $N00305                    1002f5bd     WebWorkerThreads.exp
 0002:0000f5f2       $N00306                    1002f5f2     WebWorkerThreads.exp
 0002:0000f61f       $N00307                    1002f61f     WebWorkerThreads.exp
 0002:0000f64a       $N00308                    1002f64a     WebWorkerThreads.exp
 0002:0000f67a       $N00309                    1002f67a     WebWorkerThreads.exp
 0002:0000f6a8       $N00310                    1002f6a8     WebWorkerThreads.exp
 0002:0000f6d8       $N00311                    1002f6d8     WebWorkerThreads.exp
 0002:0000f703       $N00312                    1002f703     WebWorkerThreads.exp
 0002:0000f739       $N00313                    1002f739     WebWorkerThreads.exp
 0002:0000f768       $N00314                    1002f768     WebWorkerThreads.exp
 0002:0000f792       $N00315                    1002f792     WebWorkerThreads.exp
 0002:0000f92c       .idata$6                   1002f92c     kernel32:KERNEL32.dll
 0002:0000fe28       .idata$6                   1002fe28     advapi32:ADVAPI32.dll
 0003:00000010       ?_Tlg_Microsoft_CRTProviderProv@@3U_TlgProvider_t@__vcrt_trace_logging_provider@@A 10030010     libvcruntime:telemetry.obj
 0003:00000050       ?__vcrt_flsindex@@3KA      10030050     libvcruntime:per_thread_data.obj
 0003:00000118       _errno_no_memory           10030118     libucrt:errno.obj
 0003:0000011c       _doserrno_no_memory        1003011c     libucrt:errno.obj
 0003:00000258       ___acrt_flsindex           10030258     libucrt:per_thread_data.obj
 0003:00000324       ___rgctypeflag             10030324     libucrt:mbctype.obj
 0003:00000328       ___rgcode_page_info        10030328     libucrt:mbctype.obj
 0003:000008d0       __module                   100308d0     WebWorkerThreads.obj
 0003:000008f8       ?end@?1??Print@@YAXABV?$FunctionCallbackInfo@VValue@v8@@@Nan@@@Z@4DA 100308f8     WebWorkerThreads.obj
 0003:00000c14       ?module_local_atexit_table@@3U_onexit_table_t@@A 10030c14     LIBCMT:utility.obj
 0003:00000c20       ?module_local_at_quick_exit_table@@3U_onexit_table_t@@A 10030c20     LIBCMT:utility.obj
 0003:00000c2c       ?is_initialized_as_dll@@3_NA 10030c2c     LIBCMT:utility.obj
 0003:00000c30       ?__proc_attached@@3HA      10030c30     LIBCMT:dll_dllmain.obj
 0003:00000c38       _GS_ExceptionRecord        10030c38     LIBCMT:gs_report.obj
 0003:00000c88       _GS_ContextRecord          10030c88     LIBCMT:gs_report.obj
 0003:00000f74       ?__vcrt_startup_thread_ptd@@3U__vcrt_ptd@@A 10030f74     libvcruntime:per_thread_data.obj
 0003:00000f9c       ___vcrt_lock_table         10030f9c     libvcruntime:locks.obj
 0003:00000fb4       ___vcrt_locks_initialized  10030fb4     libvcruntime:locks.obj
 0003:00000fb8       ?module_handles@@3PAPAUHINSTANCE__@@A 10030fb8     libvcruntime:winapi_downlevel.obj
 0003:00000fc8       ?encoded_function_pointers@@3PAPAXA 10030fc8     libvcruntime:winapi_downlevel.obj
 0003:00001014       ?heap@@3V_HeapManager@@A   10031014     libvcruntime:undname.obj
 0003:00001034       ___acrt_new_handler        10031034     libucrt:new_handler.obj
 0003:00001038       _c_termination_complete    10031038     libucrt:exit.obj
 0003:0000103c       _thread_local_exit_callback_func 1003103c     libucrt:exit.obj
 0003:00001040       ?c_exit_complete@?5??common_exit@@YAXHW4_crt_exit_cleanup_mode@@W4_crt_exit_return_mode@@@Z@4_NA 10031040     libucrt:exit.obj
 0003:0000106c       ___acrt_invalid_parameter_handler 1003106c     libucrt:invalid_parameter.obj
 0003:00001278       _module_handles            10031278     libucrt:winapi_thunks.obj
 0003:000012c8       _encoded_function_pointers 100312c8     libucrt:winapi_thunks.obj
 0003:00001348       ?state_cache@?1??__acrt_is_packaged_app@@9@4JA 10031348     libucrt:winapi_thunks.obj
 0003:00001350       ___acrt_lock_table         10031350     libucrt:locks.obj
 0003:00001488       ___acrt_locks_initialized  10031488     libucrt:locks.obj
 0003:0000148c       _enable_percent_n          1003148c     libucrt:printf_count_output.obj
 0003:000014a0       ___acrt_app_type           100314a0     libucrt:report_runtime_error.obj
 0003:000014a4       ___acrt_error_mode         100314a4     libucrt:set_error_mode.obj
 0003:000014a8       _ctrlc_action              100314a8     libucrt:signal.obj
 0003:000014ac       _ctrlbreak_action          100314ac     libucrt:signal.obj
 0003:000014b0       _abort_action              100314b0     libucrt:signal.obj
 0003:000014b4       _term_action               100314b4     libucrt:signal.obj
 0003:000014d0       _fSystemSet                100314d0     libucrt:mbctype.obj
 0003:000014d4       ?initialized@?1??__acrt_initialize_multibyte@@9@4_NA 100314d4     libucrt:mbctype.obj
 0003:000014ec       _user_matherr              100314ec     libucrt:matherr.obj
 0003:000014f0       ___acrt_global_new_mode    100314f0     libucrt:new_mode.obj
 0003:0000150c       __pmatherr_set             1003150c     libucrt:libm_error.obj
 0003:00001530       ?freeThreadsQueue@@3PAUtypeQueue@@A 10031530     WebWorkerThreads.obj
 0003:00001534       ?freeJobsQueue@@3PAUtypeQueue@@A 10031534     WebWorkerThreads.obj
 0003:00001538       ?freeItemsQueue@@3PAUtypeQueue@@A 10031538     WebWorkerThreads.obj
 0003:0000153c       ?queuesPool@@3PAUtypeQueue@@A 1003153c     WebWorkerThreads.obj
 0003:00001544       ?threadTemplate@@3V?$Persistent@VObjectTemplate@v8@@V?$NonCopyablePersistentTraits@VObjectTemplate@v8@@@2@@Nan@@A 10031544     WebWorkerThreads.obj
 0003:00001548       ?id_symbol@@3V?$Persistent@VString@v8@@V?$NonCopyablePersistentTraits@VString@v8@@@2@@Nan@@A 10031548     WebWorkerThreads.obj
 0003:0000154c       ?useLocker@@3_NA           1003154c     WebWorkerThreads.obj
 0003:00001550       ?threadsCtr@?1??Create@@YAXABV?$FunctionCallbackInfo@VValue@v8@@@Nan@@@Z@4JA 10031550     WebWorkerThreads.obj
 0004:00000000       __guard_fids____dcrt_uninitialize_environments_nolock 10032000     libucrt:environment_initialization.obj
 0004:00000008       __guard_fids__             10032008     libucrt:initialization.obj
 0004:00000068       __guard_fids__             10032068     libucrt:stdio_initializer.obj
 0004:0000006c       __guard_fids__             1003206c     libucrt:stdio_initializer.obj
 0004:00000070       __guard_fids____acrt_initialize_ptd 10032070     libucrt:per_thread_data.obj
 0004:00000074       __guard_fids_??$common_show_message_box@_W@@YAHQB_W0I@Z 10032074     libucrt:crtmbox.obj
 0004:00000078       __guard_fids__             10032078     libucrt:locale_initializer.obj
 0004:0000007c       __guard_fids__             1003207c     libucrt:multibyte_initializer.obj
 0004:00000080       __guard_fids__             10032080     libucrt:console_output_initializer.obj
 0004:00000084       __guard_fids____libm_error_support 10032084     libucrt:libm_error.obj
 0004:00000088       __guard_fids__             10032088     libucrt:sse2_initializer.obj
 0004:0000008c       __guard_fids__             1003208c     LIBCMT:std_type_info_static.obj
 0004:00000090       __guard_fids_?dllmain_crt_process_attach@@YAHQAUHINSTANCE__@@QAX@Z 10032090     LIBCMT:dll_dllmain.obj
 0004:00000098       __guard_fids_?dllmain_dispatch@@YAHQAUHINSTANCE__@@KQAX@Z 10032098     LIBCMT:dll_dllmain.obj
 0004:0000009c       __guard_fids__             1003209c     LIBCMT:throw_bad_alloc.obj
 0004:000000a4       __guard_fids__             100320a4     LIBCMT:throw_bad_alloc.obj
 0004:000000ac       __guard_fids__             100320ac     LIBCMT:throw_bad_alloc.obj
 0004:000000b4       __guard_fids__             100320b4     LIBCMT:throw_bad_alloc.obj
 0004:000000b8       __guard_fids__             100320b8     LIBCMT:throw_bad_alloc.obj
 0004:000000bc       __guard_fids__             100320bc     LIBCMT:throw_bad_alloc.obj
 0004:000000c0       __guard_fids__             100320c0     LIBCMT:throw_bad_alloc.obj
 0004:000000c4       __guard_fids__             100320c4     LIBCMT:throw_bad_alloc.obj
 0004:000000c8       __guard_fids__             100320c8     LIBCMT:guard_support.obj
 0004:000000cc       __guard_fids__             100320cc     libvcruntime:telemetry.obj
 0004:000000d0       __guard_fids_?TraceLoggingRegister@__vcrt_trace_logging_provider@@YAJPBU_TlgProvider_t@1@PBU_GUID@@P6GX1KE_K2PAU_EVENT_FILTER_DESCRIPTOR@@PAX@Z4@Z 100320d0     libvcruntime:telemetry.obj
 0004:000000d4       __guard_fids____vcrt_initialize_ptd 100320d4     libvcruntime:per_thread_data.obj
 0005:00000060       $R000000                   10033060     * linker generated manifest res *

 Exports

  ordinal    name

        1    ??0Allocator@ArrayBuffer@v8@@QAE@ABV012@@Z (public: __thiscall v8::ArrayBuffer::Allocator::Allocator(class v8::ArrayBuffer::Allocator const &))
        2    ??0Allocator@ArrayBuffer@v8@@QAE@XZ (public: __thiscall v8::ArrayBuffer::Allocator::Allocator(void))
        3    ??0CachedData@ScriptCompiler@v8@@QAE@XZ (public: __thiscall v8::ScriptCompiler::CachedData::CachedData(void))
        4    ??0Contents@ArrayBuffer@v8@@QAE@XZ (public: __thiscall v8::ArrayBuffer::Contents::Contents(void))
        5    ??0Contents@SharedArrayBuffer@v8@@QAE@XZ (public: __thiscall v8::SharedArrayBuffer::Contents::Contents(void))
        6    ??0ExtensionConfiguration@v8@@QAE@HQAPBD@Z (public: __thiscall v8::ExtensionConfiguration::ExtensionConfiguration(int,char const * * const))
        7    ??0ExtensionConfiguration@v8@@QAE@XZ (public: __thiscall v8::ExtensionConfiguration::ExtensionConfiguration(void))
        8    ??0ExternalOneByteStringResource@String@v8@@IAE@XZ (protected: __thiscall v8::String::ExternalOneByteStringResource::ExternalOneByteStringResource(void))
        9    ??0ExternalOneByteStringResourceImpl@v8@@QAE@PBDI@Z (public: __thiscall v8::ExternalOneByteStringResourceImpl::ExternalOneByteStringResourceImpl(char const *,unsigned int))
       10    ??0ExternalOneByteStringResourceImpl@v8@@QAE@XZ (public: __thiscall v8::ExternalOneByteStringResourceImpl::ExternalOneByteStringResourceImpl(void))
       11    ??0ExternalResourceVisitor@v8@@QAE@ABV01@@Z (public: __thiscall v8::ExternalResourceVisitor::ExternalResourceVisitor(class v8::ExternalResourceVisitor const &))
       12    ??0ExternalResourceVisitor@v8@@QAE@XZ (public: __thiscall v8::ExternalResourceVisitor::ExternalResourceVisitor(void))
       13    ??0ExternalSourceStream@ScriptCompiler@v8@@QAE@ABV012@@Z (public: __thiscall v8::ScriptCompiler::ExternalSourceStream::ExternalSourceStream(class v8::ScriptCompiler::ExternalSourceStream const &))
       14    ??0ExternalSourceStream@ScriptCompiler@v8@@QAE@XZ (public: __thiscall v8::ScriptCompiler::ExternalSourceStream::ExternalSourceStream(void))
       15    ??0ExternalStringResource@String@v8@@IAE@XZ (protected: __thiscall v8::String::ExternalStringResource::ExternalStringResource(void))
       16    ??0ExternalStringResourceBase@String@v8@@IAE@XZ (protected: __thiscall v8::String::ExternalStringResourceBase::ExternalStringResourceBase(void))
       17    ??0HandleScope@v8@@IAE@XZ (protected: __thiscall v8::HandleScope::HandleScope(void))
       18    ??0Locker@v8@@QAE@PAVIsolate@1@@Z (public: __thiscall v8::Locker::Locker(class v8::Isolate *))
       19    ??0PersistentHandleVisitor@v8@@QAE@ABV01@@Z (public: __thiscall v8::PersistentHandleVisitor::PersistentHandleVisitor(class v8::PersistentHandleVisitor const &))
       20    ??0PersistentHandleVisitor@v8@@QAE@XZ (public: __thiscall v8::PersistentHandleVisitor::PersistentHandleVisitor(void))
       21    ??0Scope@Isolate@v8@@QAE@PAV12@@Z (public: __thiscall v8::Isolate::Scope::Scope(class v8::Isolate *))
       22    ??0Unlocker@v8@@QAE@PAVIsolate@1@@Z (public: __thiscall v8::Unlocker::Unlocker(class v8::Isolate *))
       23    ??1Allocator@ArrayBuffer@v8@@UAE@XZ (public: virtual __thiscall v8::ArrayBuffer::Allocator::~Allocator(void))
       24    ??1EscapableHandleScope@v8@@QAE@XZ (public: __thiscall v8::EscapableHandleScope::~EscapableHandleScope(void))
       25    ??1Extension@v8@@UAE@XZ (public: virtual __thiscall v8::Extension::~Extension(void))
       26    ??1ExternalOneByteStringResource@String@v8@@UAE@XZ (public: virtual __thiscall v8::String::ExternalOneByteStringResource::~ExternalOneByteStringResource(void))
       27    ??1ExternalOneByteStringResourceImpl@v8@@UAE@XZ (public: virtual __thiscall v8::ExternalOneByteStringResourceImpl::~ExternalOneByteStringResourceImpl(void))
       28    ??1ExternalResourceVisitor@v8@@UAE@XZ (public: virtual __thiscall v8::ExternalResourceVisitor::~ExternalResourceVisitor(void))
       29    ??1ExternalSourceStream@ScriptCompiler@v8@@UAE@XZ (public: virtual __thiscall v8::ScriptCompiler::ExternalSourceStream::~ExternalSourceStream(void))
       30    ??1ExternalStringResource@String@v8@@UAE@XZ (public: virtual __thiscall v8::String::ExternalStringResource::~ExternalStringResource(void))
       31    ??1ExternalStringResourceBase@String@v8@@UAE@XZ (public: virtual __thiscall v8::String::ExternalStringResourceBase::~ExternalStringResourceBase(void))
       32    ??1PersistentHandleVisitor@v8@@UAE@XZ (public: virtual __thiscall v8::PersistentHandleVisitor::~PersistentHandleVisitor(void))
       33    ??1Scope@Isolate@v8@@QAE@XZ (public: __thiscall v8::Isolate::Scope::~Scope(void))
       34    ??4AccessorSignature@v8@@QAEAAV01@$$QAV01@@Z (public: class v8::AccessorSignature & __thiscall v8::AccessorSignature::operator=(class v8::AccessorSignature &&))
       35    ??4AccessorSignature@v8@@QAEAAV01@ABV01@@Z (public: class v8::AccessorSignature & __thiscall v8::AccessorSignature::operator=(class v8::AccessorSignature const &))
       36    ??4Allocator@ArrayBuffer@v8@@QAEAAV012@ABV012@@Z (public: class v8::ArrayBuffer::Allocator & __thiscall v8::ArrayBuffer::Allocator::operator=(class v8::ArrayBuffer::Allocator const &))
       37    ??4Array@v8@@QAEAAV01@$$QAV01@@Z (public: class v8::Array & __thiscall v8::Array::operator=(class v8::Array &&))
       38    ??4Array@v8@@QAEAAV01@ABV01@@Z (public: class v8::Array & __thiscall v8::Array::operator=(class v8::Array const &))
       39    ??4ArrayBuffer@v8@@QAEAAV01@$$QAV01@@Z (public: class v8::ArrayBuffer & __thiscall v8::ArrayBuffer::operator=(class v8::ArrayBuffer &&))
       40    ??4ArrayBuffer@v8@@QAEAAV01@ABV01@@Z (public: class v8::ArrayBuffer & __thiscall v8::ArrayBuffer::operator=(class v8::ArrayBuffer const &))
       41    ??4ArrayBufferView@v8@@QAEAAV01@$$QAV01@@Z (public: class v8::ArrayBufferView & __thiscall v8::ArrayBufferView::operator=(class v8::ArrayBufferView &&))
       42    ??4ArrayBufferView@v8@@QAEAAV01@ABV01@@Z (public: class v8::ArrayBufferView & __thiscall v8::ArrayBufferView::operator=(class v8::ArrayBufferView const &))
       43    ??4Boolean@v8@@QAEAAV01@$$QAV01@@Z (public: class v8::Boolean & __thiscall v8::Boolean::operator=(class v8::Boolean &&))
       44    ??4Boolean@v8@@QAEAAV01@ABV01@@Z (public: class v8::Boolean & __thiscall v8::Boolean::operator=(class v8::Boolean const &))
       45    ??4BooleanObject@v8@@QAEAAV01@$$QAV01@@Z (public: class v8::BooleanObject & __thiscall v8::BooleanObject::operator=(class v8::BooleanObject &&))
       46    ??4BooleanObject@v8@@QAEAAV01@ABV01@@Z (public: class v8::BooleanObject & __thiscall v8::BooleanObject::operator=(class v8::BooleanObject const &))
       47    ??4Contents@ArrayBuffer@v8@@QAEAAV012@$$QAV012@@Z (public: class v8::ArrayBuffer::Contents & __thiscall v8::ArrayBuffer::Contents::operator=(class v8::ArrayBuffer::Contents &&))
       48    ??4Contents@ArrayBuffer@v8@@QAEAAV012@ABV012@@Z (public: class v8::ArrayBuffer::Contents & __thiscall v8::ArrayBuffer::Contents::operator=(class v8::ArrayBuffer::Contents const &))
       49    ??4Contents@SharedArrayBuffer@v8@@QAEAAV012@$$QAV012@@Z (public: class v8::SharedArrayBuffer::Contents & __thiscall v8::SharedArrayBuffer::Contents::operator=(class v8::SharedArrayBuffer::Contents &&))
       50    ??4Contents@SharedArrayBuffer@v8@@QAEAAV012@ABV012@@Z (public: class v8::SharedArrayBuffer::Contents & __thiscall v8::SharedArrayBuffer::Contents::operator=(class v8::SharedArrayBuffer::Contents const &))
       51    ??4Context@v8@@QAEAAV01@$$QAV01@@Z (public: class v8::Context & __thiscall v8::Context::operator=(class v8::Context &&))
       52    ??4Context@v8@@QAEAAV01@ABV01@@Z (public: class v8::Context & __thiscall v8::Context::operator=(class v8::Context const &))
       53    ??4Data@v8@@QAEAAV01@$$QAV01@@Z (public: class v8::Data & __thiscall v8::Data::operator=(class v8::Data &&))
       54    ??4Data@v8@@QAEAAV01@ABV01@@Z (public: class v8::Data & __thiscall v8::Data::operator=(class v8::Data const &))
       55    ??4DataView@v8@@QAEAAV01@$$QAV01@@Z (public: class v8::DataView & __thiscall v8::DataView::operator=(class v8::DataView &&))
       56    ??4DataView@v8@@QAEAAV01@ABV01@@Z (public: class v8::DataView & __thiscall v8::DataView::operator=(class v8::DataView const &))
       57    ??4Date@v8@@QAEAAV01@$$QAV01@@Z (public: class v8::Date & __thiscall v8::Date::operator=(class v8::Date &&))
       58    ??4Date@v8@@QAEAAV01@ABV01@@Z (public: class v8::Date & __thiscall v8::Date::operator=(class v8::Date const &))
       59    ??4Exception@v8@@QAEAAV01@$$QAV01@@Z (public: class v8::Exception & __thiscall v8::Exception::operator=(class v8::Exception &&))
       60    ??4Exception@v8@@QAEAAV01@ABV01@@Z (public: class v8::Exception & __thiscall v8::Exception::operator=(class v8::Exception const &))
       61    ??4External@v8@@QAEAAV01@$$QAV01@@Z (public: class v8::External & __thiscall v8::External::operator=(class v8::External &&))
       62    ??4External@v8@@QAEAAV01@ABV01@@Z (public: class v8::External & __thiscall v8::External::operator=(class v8::External const &))
       63    ??4ExternalResourceVisitor@v8@@QAEAAV01@ABV01@@Z (public: class v8::ExternalResourceVisitor & __thiscall v8::ExternalResourceVisitor::operator=(class v8::ExternalResourceVisitor const &))
       64    ??4ExternalSourceStream@ScriptCompiler@v8@@QAEAAV012@ABV012@@Z (public: class v8::ScriptCompiler::ExternalSourceStream & __thiscall v8::ScriptCompiler::ExternalSourceStream::operator=(class v8::ScriptCompiler::ExternalSourceStream const &))
       65    ??4Float32Array@v8@@QAEAAV01@$$QAV01@@Z (public: class v8::Float32Array & __thiscall v8::Float32Array::operator=(class v8::Float32Array &&))
       66    ??4Float32Array@v8@@QAEAAV01@ABV01@@Z (public: class v8::Float32Array & __thiscall v8::Float32Array::operator=(class v8::Float32Array const &))
       67    ??4Float64Array@v8@@QAEAAV01@$$QAV01@@Z (public: class v8::Float64Array & __thiscall v8::Float64Array::operator=(class v8::Float64Array &&))
       68    ??4Float64Array@v8@@QAEAAV01@ABV01@@Z (public: class v8::Float64Array & __thiscall v8::Float64Array::operator=(class v8::Float64Array const &))
       69    ??4Function@v8@@QAEAAV01@$$QAV01@@Z (public: class v8::Function & __thiscall v8::Function::operator=(class v8::Function &&))
       70    ??4Function@v8@@QAEAAV01@ABV01@@Z (public: class v8::Function & __thiscall v8::Function::operator=(class v8::Function const &))
       71    ??4FunctionTemplate@v8@@QAEAAV01@$$QAV01@@Z (public: class v8::FunctionTemplate & __thiscall v8::FunctionTemplate::operator=(class v8::FunctionTemplate &&))
       72    ??4FunctionTemplate@v8@@QAEAAV01@ABV01@@Z (public: class v8::FunctionTemplate & __thiscall v8::FunctionTemplate::operator=(class v8::FunctionTemplate const &))
       73    ??4HeapObjectStatistics@v8@@QAEAAV01@$$QAV01@@Z (public: class v8::HeapObjectStatistics & __thiscall v8::HeapObjectStatistics::operator=(class v8::HeapObjectStatistics &&))
       74    ??4HeapObjectStatistics@v8@@QAEAAV01@ABV01@@Z (public: class v8::HeapObjectStatistics & __thiscall v8::HeapObjectStatistics::operator=(class v8::HeapObjectStatistics const &))
       75    ??4HeapSpaceStatistics@v8@@QAEAAV01@$$QAV01@@Z (public: class v8::HeapSpaceStatistics & __thiscall v8::HeapSpaceStatistics::operator=(class v8::HeapSpaceStatistics &&))
       76    ??4HeapSpaceStatistics@v8@@QAEAAV01@ABV01@@Z (public: class v8::HeapSpaceStatistics & __thiscall v8::HeapSpaceStatistics::operator=(class v8::HeapSpaceStatistics const &))
       77    ??4HeapStatistics@v8@@QAEAAV01@$$QAV01@@Z (public: class v8::HeapStatistics & __thiscall v8::HeapStatistics::operator=(class v8::HeapStatistics &&))
       78    ??4HeapStatistics@v8@@QAEAAV01@ABV01@@Z (public: class v8::HeapStatistics & __thiscall v8::HeapStatistics::operator=(class v8::HeapStatistics const &))
       79    ??4Int16Array@v8@@QAEAAV01@$$QAV01@@Z (public: class v8::Int16Array & __thiscall v8::Int16Array::operator=(class v8::Int16Array &&))
       80    ??4Int16Array@v8@@QAEAAV01@ABV01@@Z (public: class v8::Int16Array & __thiscall v8::Int16Array::operator=(class v8::Int16Array const &))
       81    ??4Int32@v8@@QAEAAV01@$$QAV01@@Z (public: class v8::Int32 & __thiscall v8::Int32::operator=(class v8::Int32 &&))
       82    ??4Int32@v8@@QAEAAV01@ABV01@@Z (public: class v8::Int32 & __thiscall v8::Int32::operator=(class v8::Int32 const &))
       83    ??4Int32Array@v8@@QAEAAV01@$$QAV01@@Z (public: class v8::Int32Array & __thiscall v8::Int32Array::operator=(class v8::Int32Array &&))
       84    ??4Int32Array@v8@@QAEAAV01@ABV01@@Z (public: class v8::Int32Array & __thiscall v8::Int32Array::operator=(class v8::Int32Array const &))
       85    ??4Int8Array@v8@@QAEAAV01@$$QAV01@@Z (public: class v8::Int8Array & __thiscall v8::Int8Array::operator=(class v8::Int8Array &&))
       86    ??4Int8Array@v8@@QAEAAV01@ABV01@@Z (public: class v8::Int8Array & __thiscall v8::Int8Array::operator=(class v8::Int8Array const &))
       87    ??4Integer@v8@@QAEAAV01@$$QAV01@@Z (public: class v8::Integer & __thiscall v8::Integer::operator=(class v8::Integer &&))
       88    ??4Integer@v8@@QAEAAV01@ABV01@@Z (public: class v8::Integer & __thiscall v8::Integer::operator=(class v8::Integer const &))
       89    ??4JSON@v8@@QAEAAV01@$$QAV01@@Z (public: class v8::JSON & __thiscall v8::JSON::operator=(class v8::JSON &&))
       90    ??4JSON@v8@@QAEAAV01@ABV01@@Z (public: class v8::JSON & __thiscall v8::JSON::operator=(class v8::JSON const &))
       91    ??4Map@v8@@QAEAAV01@$$QAV01@@Z (public: class v8::Map & __thiscall v8::Map::operator=(class v8::Map &&))
       92    ??4Map@v8@@QAEAAV01@ABV01@@Z (public: class v8::Map & __thiscall v8::Map::operator=(class v8::Map const &))
       93    ??4Message@v8@@QAEAAV01@$$QAV01@@Z (public: class v8::Message & __thiscall v8::Message::operator=(class v8::Message &&))
       94    ??4Message@v8@@QAEAAV01@ABV01@@Z (public: class v8::Message & __thiscall v8::Message::operator=(class v8::Message const &))
       95    ??4Name@v8@@QAEAAV01@$$QAV01@@Z (public: class v8::Name & __thiscall v8::Name::operator=(class v8::Name &&))
       96    ??4Name@v8@@QAEAAV01@ABV01@@Z (public: class v8::Name & __thiscall v8::Name::operator=(class v8::Name const &))
       97    ??4NativeWeakMap@v8@@QAEAAV01@$$QAV01@@Z (public: class v8::NativeWeakMap & __thiscall v8::NativeWeakMap::operator=(class v8::NativeWeakMap &&))
       98    ??4NativeWeakMap@v8@@QAEAAV01@ABV01@@Z (public: class v8::NativeWeakMap & __thiscall v8::NativeWeakMap::operator=(class v8::NativeWeakMap const &))
       99    ??4Number@v8@@QAEAAV01@$$QAV01@@Z (public: class v8::Number & __thiscall v8::Number::operator=(class v8::Number &&))
      100    ??4Number@v8@@QAEAAV01@ABV01@@Z (public: class v8::Number & __thiscall v8::Number::operator=(class v8::Number const &))
      101    ??4NumberObject@v8@@QAEAAV01@$$QAV01@@Z (public: class v8::NumberObject & __thiscall v8::NumberObject::operator=(class v8::NumberObject &&))
      102    ??4NumberObject@v8@@QAEAAV01@ABV01@@Z (public: class v8::NumberObject & __thiscall v8::NumberObject::operator=(class v8::NumberObject const &))
      103    ??4Object@v8@@QAEAAV01@$$QAV01@@Z (public: class v8::Object & __thiscall v8::Object::operator=(class v8::Object &&))
      104    ??4Object@v8@@QAEAAV01@ABV01@@Z (public: class v8::Object & __thiscall v8::Object::operator=(class v8::Object const &))
      105    ??4ObjectTemplate@v8@@QAEAAV01@$$QAV01@@Z (public: class v8::ObjectTemplate & __thiscall v8::ObjectTemplate::operator=(class v8::ObjectTemplate &&))
      106    ??4ObjectTemplate@v8@@QAEAAV01@ABV01@@Z (public: class v8::ObjectTemplate & __thiscall v8::ObjectTemplate::operator=(class v8::ObjectTemplate const &))
      107    ??4PersistentHandleVisitor@v8@@QAEAAV01@ABV01@@Z (public: class v8::PersistentHandleVisitor & __thiscall v8::PersistentHandleVisitor::operator=(class v8::PersistentHandleVisitor const &))
      108    ??4Primitive@v8@@QAEAAV01@$$QAV01@@Z (public: class v8::Primitive & __thiscall v8::Primitive::operator=(class v8::Primitive &&))
      109    ??4Primitive@v8@@QAEAAV01@ABV01@@Z (public: class v8::Primitive & __thiscall v8::Primitive::operator=(class v8::Primitive const &))
      110    ??4Promise@v8@@QAEAAV01@$$QAV01@@Z (public: class v8::Promise & __thiscall v8::Promise::operator=(class v8::Promise &&))
      111    ??4Promise@v8@@QAEAAV01@ABV01@@Z (public: class v8::Promise & __thiscall v8::Promise::operator=(class v8::Promise const &))
      112    ??4RegExp@v8@@QAEAAV01@$$QAV01@@Z (public: class v8::RegExp & __thiscall v8::RegExp::operator=(class v8::RegExp &&))
      113    ??4RegExp@v8@@QAEAAV01@ABV01@@Z (public: class v8::RegExp & __thiscall v8::RegExp::operator=(class v8::RegExp const &))
      114    ??4Resolver@Promise@v8@@QAEAAV012@$$QAV012@@Z (public: class v8::Promise::Resolver & __thiscall v8::Promise::Resolver::operator=(class v8::Promise::Resolver &&))
      115    ??4Resolver@Promise@v8@@QAEAAV012@ABV012@@Z (public: class v8::Promise::Resolver & __thiscall v8::Promise::Resolver::operator=(class v8::Promise::Resolver const &))
      116    ??4ResourceConstraints@v8@@QAEAAV01@$$QAV01@@Z (public: class v8::ResourceConstraints & __thiscall v8::ResourceConstraints::operator=(class v8::ResourceConstraints &&))
      117    ??4ResourceConstraints@v8@@QAEAAV01@ABV01@@Z (public: class v8::ResourceConstraints & __thiscall v8::ResourceConstraints::operator=(class v8::ResourceConstraints const &))
      118    ??4Script@v8@@QAEAAV01@$$QAV01@@Z (public: class v8::Script & __thiscall v8::Script::operator=(class v8::Script &&))
      119    ??4Script@v8@@QAEAAV01@ABV01@@Z (public: class v8::Script & __thiscall v8::Script::operator=(class v8::Script const &))
      120    ??4ScriptCompiler@v8@@QAEAAV01@$$QAV01@@Z (public: class v8::ScriptCompiler & __thiscall v8::ScriptCompiler::operator=(class v8::ScriptCompiler &&))
      121    ??4ScriptCompiler@v8@@QAEAAV01@ABV01@@Z (public: class v8::ScriptCompiler & __thiscall v8::ScriptCompiler::operator=(class v8::ScriptCompiler const &))
      122    ??4Set@v8@@QAEAAV01@$$QAV01@@Z (public: class v8::Set & __thiscall v8::Set::operator=(class v8::Set &&))
      123    ??4Set@v8@@QAEAAV01@ABV01@@Z (public: class v8::Set & __thiscall v8::Set::operator=(class v8::Set const &))
      124    ??4SharedArrayBuffer@v8@@QAEAAV01@$$QAV01@@Z (public: class v8::SharedArrayBuffer & __thiscall v8::SharedArrayBuffer::operator=(class v8::SharedArrayBuffer &&))
      125    ??4SharedArrayBuffer@v8@@QAEAAV01@ABV01@@Z (public: class v8::SharedArrayBuffer & __thiscall v8::SharedArrayBuffer::operator=(class v8::SharedArrayBuffer const &))
      126    ??4Signature@v8@@QAEAAV01@$$QAV01@@Z (public: class v8::Signature & __thiscall v8::Signature::operator=(class v8::Signature &&))
      127    ??4Signature@v8@@QAEAAV01@ABV01@@Z (public: class v8::Signature & __thiscall v8::Signature::operator=(class v8::Signature const &))
      128    ??4StackFrame@v8@@QAEAAV01@$$QAV01@@Z (public: class v8::StackFrame & __thiscall v8::StackFrame::operator=(class v8::StackFrame &&))
      129    ??4StackFrame@v8@@QAEAAV01@ABV01@@Z (public: class v8::StackFrame & __thiscall v8::StackFrame::operator=(class v8::StackFrame const &))
      130    ??4StackTrace@v8@@QAEAAV01@$$QAV01@@Z (public: class v8::StackTrace & __thiscall v8::StackTrace::operator=(class v8::StackTrace &&))
      131    ??4StackTrace@v8@@QAEAAV01@ABV01@@Z (public: class v8::StackTrace & __thiscall v8::StackTrace::operator=(class v8::StackTrace const &))
      132    ??4StartupData@v8@@QAEAAV01@$$QAV01@@Z (public: class v8::StartupData & __thiscall v8::StartupData::operator=(class v8::StartupData &&))
      133    ??4StartupData@v8@@QAEAAV01@ABV01@@Z (public: class v8::StartupData & __thiscall v8::StartupData::operator=(class v8::StartupData const &))
      134    ??4String@v8@@QAEAAV01@$$QAV01@@Z (public: class v8::String & __thiscall v8::String::operator=(class v8::String &&))
      135    ??4String@v8@@QAEAAV01@ABV01@@Z (public: class v8::String & __thiscall v8::String::operator=(class v8::String const &))
      136    ??4StringObject@v8@@QAEAAV01@$$QAV01@@Z (public: class v8::StringObject & __thiscall v8::StringObject::operator=(class v8::StringObject &&))
      137    ??4StringObject@v8@@QAEAAV01@ABV01@@Z (public: class v8::StringObject & __thiscall v8::StringObject::operator=(class v8::StringObject const &))
      138    ??4Symbol@v8@@QAEAAV01@$$QAV01@@Z (public: class v8::Symbol & __thiscall v8::Symbol::operator=(class v8::Symbol &&))
      139    ??4Symbol@v8@@QAEAAV01@ABV01@@Z (public: class v8::Symbol & __thiscall v8::Symbol::operator=(class v8::Symbol const &))
      140    ??4SymbolObject@v8@@QAEAAV01@$$QAV01@@Z (public: class v8::SymbolObject & __thiscall v8::SymbolObject::operator=(class v8::SymbolObject &&))
      141    ??4SymbolObject@v8@@QAEAAV01@ABV01@@Z (public: class v8::SymbolObject & __thiscall v8::SymbolObject::operator=(class v8::SymbolObject const &))
      142    ??4Template@v8@@QAEAAV01@$$QAV01@@Z (public: class v8::Template & __thiscall v8::Template::operator=(class v8::Template &&))
      143    ??4Template@v8@@QAEAAV01@ABV01@@Z (public: class v8::Template & __thiscall v8::Template::operator=(class v8::Template const &))
      144    ??4TypeSwitch@v8@@QAEAAV01@$$QAV01@@Z (public: class v8::TypeSwitch & __thiscall v8::TypeSwitch::operator=(class v8::TypeSwitch &&))
      145    ??4TypeSwitch@v8@@QAEAAV01@ABV01@@Z (public: class v8::TypeSwitch & __thiscall v8::TypeSwitch::operator=(class v8::TypeSwitch const &))
      146    ??4TypedArray@v8@@QAEAAV01@$$QAV01@@Z (public: class v8::TypedArray & __thiscall v8::TypedArray::operator=(class v8::TypedArray &&))
      147    ??4TypedArray@v8@@QAEAAV01@ABV01@@Z (public: class v8::TypedArray & __thiscall v8::TypedArray::operator=(class v8::TypedArray const &))
      148    ??4Uint16Array@v8@@QAEAAV01@$$QAV01@@Z (public: class v8::Uint16Array & __thiscall v8::Uint16Array::operator=(class v8::Uint16Array &&))
      149    ??4Uint16Array@v8@@QAEAAV01@ABV01@@Z (public: class v8::Uint16Array & __thiscall v8::Uint16Array::operator=(class v8::Uint16Array const &))
      150    ??4Uint32@v8@@QAEAAV01@$$QAV01@@Z (public: class v8::Uint32 & __thiscall v8::Uint32::operator=(class v8::Uint32 &&))
      151    ??4Uint32@v8@@QAEAAV01@ABV01@@Z (public: class v8::Uint32 & __thiscall v8::Uint32::operator=(class v8::Uint32 const &))
      152    ??4Uint32Array@v8@@QAEAAV01@$$QAV01@@Z (public: class v8::Uint32Array & __thiscall v8::Uint32Array::operator=(class v8::Uint32Array &&))
      153    ??4Uint32Array@v8@@QAEAAV01@ABV01@@Z (public: class v8::Uint32Array & __thiscall v8::Uint32Array::operator=(class v8::Uint32Array const &))
      154    ??4Uint8Array@v8@@QAEAAV01@$$QAV01@@Z (public: class v8::Uint8Array & __thiscall v8::Uint8Array::operator=(class v8::Uint8Array &&))
      155    ??4Uint8Array@v8@@QAEAAV01@ABV01@@Z (public: class v8::Uint8Array & __thiscall v8::Uint8Array::operator=(class v8::Uint8Array const &))
      156    ??4Uint8ClampedArray@v8@@QAEAAV01@$$QAV01@@Z (public: class v8::Uint8ClampedArray & __thiscall v8::Uint8ClampedArray::operator=(class v8::Uint8ClampedArray &&))
      157    ??4Uint8ClampedArray@v8@@QAEAAV01@ABV01@@Z (public: class v8::Uint8ClampedArray & __thiscall v8::Uint8ClampedArray::operator=(class v8::Uint8ClampedArray const &))
      158    ??4UnboundScript@v8@@QAEAAV01@$$QAV01@@Z (public: class v8::UnboundScript & __thiscall v8::UnboundScript::operator=(class v8::UnboundScript &&))
      159    ??4UnboundScript@v8@@QAEAAV01@ABV01@@Z (public: class v8::UnboundScript & __thiscall v8::UnboundScript::operator=(class v8::UnboundScript const &))
      160    ??4Unlocker@v8@@QAEAAV01@ABV01@@Z (public: class v8::Unlocker & __thiscall v8::Unlocker::operator=(class v8::Unlocker const &))
      161    ??4V8@v8@@QAEAAV01@$$QAV01@@Z (public: class v8::V8 & __thiscall v8::V8::operator=(class v8::V8 &&))
      162    ??4V8@v8@@QAEAAV01@ABV01@@Z (public: class v8::V8 & __thiscall v8::V8::operator=(class v8::V8 const &))
      163    ??4Value@v8@@QAEAAV01@$$QAV01@@Z (public: class v8::Value & __thiscall v8::Value::operator=(class v8::Value &&))
      164    ??4Value@v8@@QAEAAV01@ABV01@@Z (public: class v8::Value & __thiscall v8::Value::operator=(class v8::Value const &))
      165    ??DUtf8Value@String@v8@@QAEPADXZ (public: char * __thiscall v8::String::Utf8Value::operator*(void))
      166    ??DUtf8Value@String@v8@@QBEPBDXZ (public: char const * __thiscall v8::String::Utf8Value::operator*(void)const )
      167    ??DValue@String@v8@@QAEPAGXZ (public: unsigned short * __thiscall v8::String::Value::operator*(void))
      168    ??DValue@String@v8@@QBEPBGXZ (public: unsigned short const * __thiscall v8::String::Value::operator*(void)const )
      169    ??_7Allocator@ArrayBuffer@v8@@6B@ (const v8::ArrayBuffer::Allocator::`vftable')
      170    ??_7Extension@v8@@6B@ (const v8::Extension::`vftable')
      171    ??_7ExternalOneByteStringResource@String@v8@@6B@ (const v8::String::ExternalOneByteStringResource::`vftable')
      172    ??_7ExternalOneByteStringResourceImpl@v8@@6B@ (const v8::ExternalOneByteStringResourceImpl::`vftable')
      173    ??_7ExternalResourceVisitor@v8@@6B@ (const v8::ExternalResourceVisitor::`vftable')
      174    ??_7ExternalSourceStream@ScriptCompiler@v8@@6B@ (const v8::ScriptCompiler::ExternalSourceStream::`vftable')
      175    ??_7ExternalStringResource@String@v8@@6B@ (const v8::String::ExternalStringResource::`vftable')
      176    ??_7ExternalStringResourceBase@String@v8@@6B@ (const v8::String::ExternalStringResourceBase::`vftable')
      177    ??_7PersistentHandleVisitor@v8@@6B@ (const v8::PersistentHandleVisitor::`vftable')
      178    ?AddMemoryAllocationCallback@V8@v8@@SAXP6AXW4ObjectSpace@2@W4AllocationAction@2@H@Z01@Z (public: static void __cdecl v8::V8::AddMemoryAllocationCallback(void (__cdecl*)(enum v8::ObjectSpace,enum v8::AllocationAction,int),enum v8::ObjectSpace,enum v8::AllocationAction))
      179    ?AddMessageListener@V8@v8@@SA_NP6AXV?$Local@VMessage@v8@@@2@V?$Local@VValue@v8@@@2@@Z1@Z (public: static bool __cdecl v8::V8::AddMessageListener(void (__cdecl*)(class v8::Local<class v8::Message>,class v8::Local<class v8::Value>),class v8::Local<class v8::Value>))
      180    ?AdjustAmountOfExternalAllocatedMemory@Isolate@v8@@QAE_J_J@Z (public: __int64 __thiscall v8::Isolate::AdjustAmountOfExternalAllocatedMemory(__int64))
      181    ?ByteLength@Contents@ArrayBuffer@v8@@QBEIXZ (public: unsigned int __thiscall v8::ArrayBuffer::Contents::ByteLength(void)const )
      182    ?ByteLength@Contents@SharedArrayBuffer@v8@@QBEIXZ (public: unsigned int __thiscall v8::SharedArrayBuffer::Contents::ByteLength(void)const )
      183    ?CancelTerminateExecution@V8@v8@@SAXPAVIsolate@2@@Z (public: static void __cdecl v8::V8::CancelTerminateExecution(class v8::Isolate *))
      184    ?Cast@Array@v8@@SAPAV12@PAVValue@2@@Z (public: static class v8::Array * __cdecl v8::Array::Cast(class v8::Value *))
      185    ?Cast@ArrayBuffer@v8@@SAPAV12@PAVValue@2@@Z (public: static class v8::ArrayBuffer * __cdecl v8::ArrayBuffer::Cast(class v8::Value *))
      186    ?Cast@ArrayBufferView@v8@@SAPAV12@PAVValue@2@@Z (public: static class v8::ArrayBufferView * __cdecl v8::ArrayBufferView::Cast(class v8::Value *))
      187    ?Cast@Boolean@v8@@SAPAV12@PAVValue@2@@Z (public: static class v8::Boolean * __cdecl v8::Boolean::Cast(class v8::Value *))
      188    ?Cast@BooleanObject@v8@@SAPAV12@PAVValue@2@@Z (public: static class v8::BooleanObject * __cdecl v8::BooleanObject::Cast(class v8::Value *))
      189    ?Cast@DataView@v8@@SAPAV12@PAVValue@2@@Z (public: static class v8::DataView * __cdecl v8::DataView::Cast(class v8::Value *))
      190    ?Cast@Date@v8@@SAPAV12@PAVValue@2@@Z (public: static class v8::Date * __cdecl v8::Date::Cast(class v8::Value *))
      191    ?Cast@External@v8@@SAPAV12@PAVValue@2@@Z (public: static class v8::External * __cdecl v8::External::Cast(class v8::Value *))
      192    ?Cast@Float32Array@v8@@SAPAV12@PAVValue@2@@Z (public: static class v8::Float32Array * __cdecl v8::Float32Array::Cast(class v8::Value *))
      193    ?Cast@Float64Array@v8@@SAPAV12@PAVValue@2@@Z (public: static class v8::Float64Array * __cdecl v8::Float64Array::Cast(class v8::Value *))
      194    ?Cast@Function@v8@@SAPAV12@PAVValue@2@@Z (public: static class v8::Function * __cdecl v8::Function::Cast(class v8::Value *))
      195    ?Cast@Int16Array@v8@@SAPAV12@PAVValue@2@@Z (public: static class v8::Int16Array * __cdecl v8::Int16Array::Cast(class v8::Value *))
      196    ?Cast@Int32@v8@@SAPAV12@PAVValue@2@@Z (public: static class v8::Int32 * __cdecl v8::Int32::Cast(class v8::Value *))
      197    ?Cast@Int32Array@v8@@SAPAV12@PAVValue@2@@Z (public: static class v8::Int32Array * __cdecl v8::Int32Array::Cast(class v8::Value *))
      198    ?Cast@Int8Array@v8@@SAPAV12@PAVValue@2@@Z (public: static class v8::Int8Array * __cdecl v8::Int8Array::Cast(class v8::Value *))
      199    ?Cast@Integer@v8@@SAPAV12@PAVValue@2@@Z (public: static class v8::Integer * __cdecl v8::Integer::Cast(class v8::Value *))
      200    ?Cast@Map@v8@@SAPAV12@PAVValue@2@@Z (public: static class v8::Map * __cdecl v8::Map::Cast(class v8::Value *))
      201    ?Cast@Name@v8@@SAPAV12@PAVValue@2@@Z (public: static class v8::Name * __cdecl v8::Name::Cast(class v8::Value *))
      202    ?Cast@Number@v8@@SAPAV12@PAVValue@2@@Z (public: static class v8::Number * __cdecl v8::Number::Cast(class v8::Value *))
      203    ?Cast@NumberObject@v8@@SAPAV12@PAVValue@2@@Z (public: static class v8::NumberObject * __cdecl v8::NumberObject::Cast(class v8::Value *))
      204    ?Cast@Object@v8@@SAPAV12@PAVValue@2@@Z (public: static class v8::Object * __cdecl v8::Object::Cast(class v8::Value *))
      205    ?Cast@Promise@v8@@SAPAV12@PAVValue@2@@Z (public: static class v8::Promise * __cdecl v8::Promise::Cast(class v8::Value *))
      206    ?Cast@RegExp@v8@@SAPAV12@PAVValue@2@@Z (public: static class v8::RegExp * __cdecl v8::RegExp::Cast(class v8::Value *))
      207    ?Cast@Resolver@Promise@v8@@SAPAV123@PAVValue@3@@Z (public: static class v8::Promise::Resolver * __cdecl v8::Promise::Resolver::Cast(class v8::Value *))
      208    ?Cast@Set@v8@@SAPAV12@PAVValue@2@@Z (public: static class v8::Set * __cdecl v8::Set::Cast(class v8::Value *))
      209    ?Cast@SharedArrayBuffer@v8@@SAPAV12@PAVValue@2@@Z (public: static class v8::SharedArrayBuffer * __cdecl v8::SharedArrayBuffer::Cast(class v8::Value *))
      210    ?Cast@String@v8@@SAPAV12@PAVValue@2@@Z (public: static class v8::String * __cdecl v8::String::Cast(class v8::Value *))
      211    ?Cast@StringObject@v8@@SAPAV12@PAVValue@2@@Z (public: static class v8::StringObject * __cdecl v8::StringObject::Cast(class v8::Value *))
      212    ?Cast@Symbol@v8@@SAPAV12@PAVValue@2@@Z (public: static class v8::Symbol * __cdecl v8::Symbol::Cast(class v8::Value *))
      213    ?Cast@SymbolObject@v8@@SAPAV12@PAVValue@2@@Z (public: static class v8::SymbolObject * __cdecl v8::SymbolObject::Cast(class v8::Value *))
      214    ?Cast@TypedArray@v8@@SAPAV12@PAVValue@2@@Z (public: static class v8::TypedArray * __cdecl v8::TypedArray::Cast(class v8::Value *))
      215    ?Cast@Uint16Array@v8@@SAPAV12@PAVValue@2@@Z (public: static class v8::Uint16Array * __cdecl v8::Uint16Array::Cast(class v8::Value *))
      216    ?Cast@Uint32@v8@@SAPAV12@PAVValue@2@@Z (public: static class v8::Uint32 * __cdecl v8::Uint32::Cast(class v8::Value *))
      217    ?Cast@Uint32Array@v8@@SAPAV12@PAVValue@2@@Z (public: static class v8::Uint32Array * __cdecl v8::Uint32Array::Cast(class v8::Value *))
      218    ?Cast@Uint8Array@v8@@SAPAV12@PAVValue@2@@Z (public: static class v8::Uint8Array * __cdecl v8::Uint8Array::Cast(class v8::Value *))
      219    ?Cast@Uint8ClampedArray@v8@@SAPAV12@PAVValue@2@@Z (public: static class v8::Uint8ClampedArray * __cdecl v8::Uint8ClampedArray::Cast(class v8::Value *))
      220    ?Data@Contents@ArrayBuffer@v8@@QBEPAXXZ (public: void * __thiscall v8::ArrayBuffer::Contents::Data(void)const )
      221    ?Data@Contents@SharedArrayBuffer@v8@@QBEPAXXZ (public: void * __thiscall v8::SharedArrayBuffer::Contents::Data(void)const )
      222    ?Dispose@ExternalStringResourceBase@String@v8@@MAEXXZ (protected: virtual void __thiscall v8::String::ExternalStringResourceBase::Dispose(void))
      223    ?Empty@String@v8@@SA?AV?$Local@VString@v8@@@2@PAVIsolate@2@@Z (public: static class v8::Local<class v8::String> __cdecl v8::String::Empty(class v8::Isolate *))
      224    ?GetAlignedPointerFromEmbedderData@Context@v8@@QAEPAXH@Z (public: void * __thiscall v8::Context::GetAlignedPointerFromEmbedderData(int))
      225    ?GetAlignedPointerFromInternalField@Object@v8@@QAEPAXH@Z (public: void * __thiscall v8::Object::GetAlignedPointerFromInternalField(int))
      226    ?GetAlignedPointerFromInternalField@Object@v8@@SAPAXABV?$PersistentBase@VObject@v8@@@2@H@Z (public: static void * __cdecl v8::Object::GetAlignedPointerFromInternalField(class v8::PersistentBase<class v8::Object> const &,int))
      227    ?GetData@Isolate@v8@@QAEPAXI@Z (public: void * __thiscall v8::Isolate::GetData(unsigned int))
      228    ?GetEmbedderData@Context@v8@@QAE?AV?$Local@VValue@v8@@@2@H@Z (public: class v8::Local<class v8::Value> __thiscall v8::Context::GetEmbedderData(int))
      229    ?GetExternalStringResource@String@v8@@QBEPAVExternalStringResource@12@XZ (public: class v8::String::ExternalStringResource * __thiscall v8::String::GetExternalStringResource(void)const )
      230    ?GetExternalStringResourceBase@String@v8@@QBEPAVExternalStringResourceBase@12@PAW4Encoding@12@@Z (public: class v8::String::ExternalStringResourceBase * __thiscall v8::String::GetExternalStringResourceBase(enum v8::String::Encoding *)const )
      231    ?GetId@Script@v8@@QAEHXZ (public: int __thiscall v8::Script::GetId(void))
      232    ?GetInternalField@Object@v8@@QAE?AV?$Local@VValue@v8@@@2@H@Z (public: class v8::Local<class v8::Value> __thiscall v8::Object::GetInternalField(int))
      233    ?GetIsolate@HandleScope@v8@@QBEPAVIsolate@2@XZ (public: class v8::Isolate * __thiscall v8::HandleScope::GetIsolate(void)const )
      234    ?GetNativeFunctionTemplate@Extension@v8@@UAE?AV?$Local@VFunctionTemplate@v8@@@2@PAVIsolate@2@V?$Local@VString@v8@@@2@@Z (public: virtual class v8::Local<class v8::FunctionTemplate> __thiscall v8::Extension::GetNativeFunctionTemplate(class v8::Isolate *,class v8::Local<class v8::String>))
      235    ?GetNumberOfDataSlots@Isolate@v8@@SAIXZ (public: static unsigned int __cdecl v8::Isolate::GetNumberOfDataSlots(void))
      236    ?InternalFieldCount@Object@v8@@SAHABV?$PersistentBase@VObject@v8@@@2@@Z (public: static int __cdecl v8::Object::InternalFieldCount(class v8::PersistentBase<class v8::Object> const &))
      237    ?IsDead@V8@v8@@SA_NXZ (public: static bool __cdecl v8::V8::IsDead(void))
      238    ?IsExecutionTerminating@V8@v8@@SA_NPAVIsolate@2@@Z (public: static bool __cdecl v8::V8::IsExecutionTerminating(class v8::Isolate *))
      239    ?IsNull@Value@v8@@QBE_NXZ (public: bool __thiscall v8::Value::IsNull(void)const )
      240    ?IsString@Value@v8@@QBE_NXZ (public: bool __thiscall v8::Value::IsString(void)const )
      241    ?IsUndefined@Value@v8@@QBE_NXZ (public: bool __thiscall v8::Value::IsUndefined(void)const )
      242    ?JSStackComparableAddress@TryCatch@v8@@SAPAXPAV12@@Z (public: static void * __cdecl v8::TryCatch::JSStackComparableAddress(class v8::TryCatch *))
      243    ?New@Boolean@v8@@SA?AV?$Local@VBoolean@v8@@@2@PAVIsolate@2@_N@Z (public: static class v8::Local<class v8::Boolean> __cdecl v8::Boolean::New(class v8::Isolate *,bool))
      244    ?NewInstance@Function@v8@@QBE?AV?$MaybeLocal@VObject@v8@@@2@V?$Local@VContext@v8@@@2@@Z (public: class v8::MaybeLocal<class v8::Object> __thiscall v8::Function::NewInstance(class v8::Local<class v8::Context>)const )
      245    ?QuickIsNull@Value@v8@@ABE_NXZ (private: bool __thiscall v8::Value::QuickIsNull(void)const )
      246    ?QuickIsString@Value@v8@@ABE_NXZ (private: bool __thiscall v8::Value::QuickIsString(void)const )
      247    ?QuickIsUndefined@Value@v8@@ABE_NXZ (private: bool __thiscall v8::Value::QuickIsUndefined(void)const )
      248    ?RemoveGCEpilogueCallback@V8@v8@@SAXP6AXW4GCType@2@W4GCCallbackFlags@2@@Z@Z (public: static void __cdecl v8::V8::RemoveGCEpilogueCallback(void (__cdecl*)(enum v8::GCType,enum v8::GCCallbackFlags)))
      249    ?RemoveGCPrologueCallback@V8@v8@@SAXP6AXW4GCType@2@W4GCCallbackFlags@2@@Z@Z (public: static void __cdecl v8::V8::RemoveGCPrologueCallback(void (__cdecl*)(enum v8::GCType,enum v8::GCCallbackFlags)))
      250    ?RemoveMemoryAllocationCallback@V8@v8@@SAXP6AXW4ObjectSpace@2@W4AllocationAction@2@H@Z@Z (public: static void __cdecl v8::V8::RemoveMemoryAllocationCallback(void (__cdecl*)(enum v8::ObjectSpace,enum v8::AllocationAction,int)))
      251    ?RemoveMessageListeners@V8@v8@@SAXP6AXV?$Local@VMessage@v8@@@2@V?$Local@VValue@v8@@@2@@Z@Z (public: static void __cdecl v8::V8::RemoveMessageListeners(void (__cdecl*)(class v8::Local<class v8::Message>,class v8::Local<class v8::Value>)))
      252    ?Set@Template@v8@@QAEXPAVIsolate@2@PBDV?$Local@VData@v8@@@2@@Z (public: void __thiscall v8::Template::Set(class v8::Isolate *,char const *,class v8::Local<class v8::Data>))
      253    ?SetAllowCodeGenerationFromStringsCallback@V8@v8@@SAXP6A_NV?$Local@VContext@v8@@@2@@Z@Z (public: static void __cdecl v8::V8::SetAllowCodeGenerationFromStringsCallback(bool (__cdecl*)(class v8::Local<class v8::Context>)))
      254    ?SetCaptureStackTraceForUncaughtExceptions@V8@v8@@SAX_NHW4StackTraceOptions@StackTrace@2@@Z (public: static void __cdecl v8::V8::SetCaptureStackTraceForUncaughtExceptions(bool,int,enum v8::StackTrace::StackTraceOptions))
      255    ?SetData@Isolate@v8@@QAEXIPAX@Z (public: void __thiscall v8::Isolate::SetData(unsigned int,void *))
      256    ?SetFailedAccessCheckCallbackFunction@V8@v8@@SAXP6AXV?$Local@VObject@v8@@@2@W4AccessType@2@V?$Local@VValue@v8@@@2@@Z@Z (public: static void __cdecl v8::V8::SetFailedAccessCheckCallbackFunction(void (__cdecl*)(class v8::Local<class v8::Object>,enum v8::AccessType,class v8::Local<class v8::Value>)))
      257    ?SetFatalErrorHandler@V8@v8@@SAXP6AXPBD0@Z@Z (public: static void __cdecl v8::V8::SetFatalErrorHandler(void (__cdecl*)(char const *,char const *)))
      258    ?SetIndexedPropertyHandler@ObjectTemplate@v8@@QAEXP6AXIABV?$PropertyCallbackInfo@VValue@v8@@@2@@ZP6AXIV?$Local@VValue@v8@@@2@0@ZP6AXIABV?$PropertyCallbackInfo@VInteger@v8@@@2@@ZP6AXIABV?$PropertyCallbackInfo@VBoolean@v8@@@2@@ZP6AXABV?$PropertyCallbackInfo@VArray@v8@@@2@@Z2@Z (public: void __thiscall v8::ObjectTemplate::SetIndexedPropertyHandler(void (__cdecl*)(unsigned int,class v8::PropertyCallbackInfo<class v8::Value> const &),void (__cdecl*)(unsigned int,class v8::Local<class v8::Value>,class v8::PropertyCallbackInfo<class v8::Value> const &),void (__cdecl*)(unsigned int,class v8::PropertyCallbackInfo<class v8::Integer> const &),void (__cdecl*)(unsigned int,class v8::PropertyCallbackInfo<class v8::Boolean> const &),void (__cdecl*)(class v8::PropertyCallbackInfo<class v8::Array> const &),class v8::Local<class v8::Value>))
      259    ?TerminateExecution@V8@v8@@SAXPAVIsolate@2@@Z (public: static void __cdecl v8::V8::TerminateExecution(class v8::Isolate *))
      260    ?ToBoolean@Value@v8@@QBE?AV?$Local@VBoolean@v8@@@2@XZ (public: class v8::Local<class v8::Boolean> __thiscall v8::Value::ToBoolean(void)const )
      261    ?ToDetailString@Value@v8@@QBE?AV?$Local@VString@v8@@@2@XZ (public: class v8::Local<class v8::String> __thiscall v8::Value::ToDetailString(void)const )
      262    ?ToInt32@Value@v8@@QBE?AV?$Local@VInt32@v8@@@2@XZ (public: class v8::Local<class v8::Int32> __thiscall v8::Value::ToInt32(void)const )
      263    ?ToInteger@Value@v8@@QBE?AV?$Local@VInteger@v8@@@2@XZ (public: class v8::Local<class v8::Integer> __thiscall v8::Value::ToInteger(void)const )
      264    ?ToNumber@Value@v8@@QBE?AV?$Local@VNumber@v8@@@2@XZ (public: class v8::Local<class v8::Number> __thiscall v8::Value::ToNumber(void)const )
      265    ?ToObject@Value@v8@@QBE?AV?$Local@VObject@v8@@@2@XZ (public: class v8::Local<class v8::Object> __thiscall v8::Value::ToObject(void)const )
      266    ?ToString@Value@v8@@QBE?AV?$Local@VString@v8@@@2@XZ (public: class v8::Local<class v8::String> __thiscall v8::Value::ToString(void)const )
      267    ?ToUint32@Value@v8@@QBE?AV?$Local@VUint32@v8@@@2@XZ (public: class v8::Local<class v8::Uint32> __thiscall v8::Value::ToUint32(void)const )
      268    ?VisitExternalResources@V8@v8@@SAXPAVExternalResourceVisitor@2@@Z (public: static void __cdecl v8::V8::VisitExternalResources(class v8::ExternalResourceVisitor *))
      269    ?VisitExternalString@ExternalResourceVisitor@v8@@UAEXV?$Local@VString@v8@@@2@@Z (public: virtual void __thiscall v8::ExternalResourceVisitor::VisitExternalString(class v8::Local<class v8::String>))
      270    ?VisitHandlesForPartialDependence@V8@v8@@SAXPAVIsolate@2@PAVPersistentHandleVisitor@2@@Z (public: static void __cdecl v8::V8::VisitHandlesForPartialDependence(class v8::Isolate *,class v8::PersistentHandleVisitor *))
      271    ?VisitHandlesWithClassIds@V8@v8@@SAXPAVIsolate@2@PAVPersistentHandleVisitor@2@@Z (public: static void __cdecl v8::V8::VisitHandlesWithClassIds(class v8::Isolate *,class v8::PersistentHandleVisitor *))
      272    ?VisitHandlesWithClassIds@V8@v8@@SAXPAVPersistentHandleVisitor@2@@Z (public: static void __cdecl v8::V8::VisitHandlesWithClassIds(class v8::PersistentHandleVisitor *))
      273    ?VisitPersistentHandle@PersistentHandleVisitor@v8@@UAEXPAV?$Persistent@VValue@v8@@V?$NonCopyablePersistentTraits@VValue@v8@@@2@@2@G@Z (public: virtual void __thiscall v8::PersistentHandleVisitor::VisitPersistentHandle(class v8::Persistent<class v8::Value,class v8::NonCopyablePersistentTraits<class v8::Value> > *,unsigned short))
      274    ?auto_enable@Extension@v8@@QAE_NXZ (public: bool __thiscall v8::Extension::auto_enable(void))
      275    ?begin@ExtensionConfiguration@v8@@QBEPAPBDXZ (public: char const * * __thiscall v8::ExtensionConfiguration::begin(void)const )
      276    ?code_range_size@ResourceConstraints@v8@@QBEIXZ (public: unsigned int __thiscall v8::ResourceConstraints::code_range_size(void)const )
      277    ?data@ExternalOneByteStringResourceImpl@v8@@UBEPBDXZ (public: virtual char const * __thiscall v8::ExternalOneByteStringResourceImpl::data(void)const )
      278    ?dependencies@Extension@v8@@QAEPAPBDXZ (public: char const * * __thiscall v8::Extension::dependencies(void))
      279    ?dependency_count@Extension@v8@@QAEHXZ (public: int __thiscall v8::Extension::dependency_count(void))
      280    ?end@ExtensionConfiguration@v8@@QBEPAPBDXZ (public: char const * * __thiscall v8::ExtensionConfiguration::end(void)const )
      281    ?heap_size_limit@HeapStatistics@v8@@QAEIXZ (public: unsigned int __thiscall v8::HeapStatistics::heap_size_limit(void))
      282    ?impl@StreamedSource@ScriptCompiler@v8@@QBEPAU1internal@3@XZ (public: struct v8::internal::StreamedSource * __thiscall v8::ScriptCompiler::StreamedSource::impl(void)const )
      283    ?length@ExternalOneByteStringResourceImpl@v8@@UBEIXZ (public: virtual unsigned int __thiscall v8::ExternalOneByteStringResourceImpl::length(void)const )
      284    ?length@Utf8Value@String@v8@@QBEHXZ (public: int __thiscall v8::String::Utf8Value::length(void)const )
      285    ?length@Value@String@v8@@QBEHXZ (public: int __thiscall v8::String::Value::length(void)const )
      286    ?max_available_threads@ResourceConstraints@v8@@QBEHXZ (public: int __thiscall v8::ResourceConstraints::max_available_threads(void)const )
      287    ?max_executable_size@ResourceConstraints@v8@@QBEHXZ (public: int __thiscall v8::ResourceConstraints::max_executable_size(void)const )
      288    ?max_old_space_size@ResourceConstraints@v8@@QBEHXZ (public: int __thiscall v8::ResourceConstraints::max_old_space_size(void)const )
      289    ?max_semi_space_size@ResourceConstraints@v8@@QBEHXZ (public: int __thiscall v8::ResourceConstraints::max_semi_space_size(void)const )
      290    ?name@Extension@v8@@QBEPBDXZ (public: char const * __thiscall v8::Extension::name(void)const )
      291    ?object_count@HeapObjectStatistics@v8@@QAEIXZ (public: unsigned int __thiscall v8::HeapObjectStatistics::object_count(void))
      292    ?object_size@HeapObjectStatistics@v8@@QAEIXZ (public: unsigned int __thiscall v8::HeapObjectStatistics::object_size(void))
      293    ?object_sub_type@HeapObjectStatistics@v8@@QAEPBDXZ (public: char const * __thiscall v8::HeapObjectStatistics::object_sub_type(void))
      294    ?object_type@HeapObjectStatistics@v8@@QAEPBDXZ (public: char const * __thiscall v8::HeapObjectStatistics::object_type(void))
      295    ?physical_space_size@HeapSpaceStatistics@v8@@QAEIXZ (public: unsigned int __thiscall v8::HeapSpaceStatistics::physical_space_size(void))
      296    ?set_auto_enable@Extension@v8@@QAEX_N@Z (public: void __thiscall v8::Extension::set_auto_enable(bool))
      297    ?set_code_range_size@ResourceConstraints@v8@@QAEXI@Z (public: void __thiscall v8::ResourceConstraints::set_code_range_size(unsigned int))
      298    ?set_max_available_threads@ResourceConstraints@v8@@QAEXH@Z (public: void __thiscall v8::ResourceConstraints::set_max_available_threads(int))
      299    ?set_max_executable_size@ResourceConstraints@v8@@QAEXH@Z (public: void __thiscall v8::ResourceConstraints::set_max_executable_size(int))
      300    ?set_max_old_space_size@ResourceConstraints@v8@@QAEXH@Z (public: void __thiscall v8::ResourceConstraints::set_max_old_space_size(int))
      301    ?set_max_semi_space_size@ResourceConstraints@v8@@QAEXH@Z (public: void __thiscall v8::ResourceConstraints::set_max_semi_space_size(int))
      302    ?set_stack_limit@ResourceConstraints@v8@@QAEXPAI@Z (public: void __thiscall v8::ResourceConstraints::set_stack_limit(unsigned int *))
      303    ?source@Extension@v8@@QBEPBVExternalOneByteStringResource@String@2@XZ (public: class v8::String::ExternalOneByteStringResource const * __thiscall v8::Extension::source(void)const )
      304    ?source_length@Extension@v8@@QBEIXZ (public: unsigned int __thiscall v8::Extension::source_length(void)const )
      305    ?space_available_size@HeapSpaceStatistics@v8@@QAEIXZ (public: unsigned int __thiscall v8::HeapSpaceStatistics::space_available_size(void))
      306    ?space_name@HeapSpaceStatistics@v8@@QAEPBDXZ (public: char const * __thiscall v8::HeapSpaceStatistics::space_name(void))
      307    ?space_size@HeapSpaceStatistics@v8@@QAEIXZ (public: unsigned int __thiscall v8::HeapSpaceStatistics::space_size(void))
      308    ?space_used_size@HeapSpaceStatistics@v8@@QAEIXZ (public: unsigned int __thiscall v8::HeapSpaceStatistics::space_used_size(void))
      309    ?stack_limit@ResourceConstraints@v8@@QBEPAIXZ (public: unsigned int * __thiscall v8::ResourceConstraints::stack_limit(void)const )
      310    ?total_available_size@HeapStatistics@v8@@QAEIXZ (public: unsigned int __thiscall v8::HeapStatistics::total_available_size(void))
      311    ?total_heap_size@HeapStatistics@v8@@QAEIXZ (public: unsigned int __thiscall v8::HeapStatistics::total_heap_size(void))
      312    ?total_heap_size_executable@HeapStatistics@v8@@QAEIXZ (public: unsigned int __thiscall v8::HeapStatistics::total_heap_size_executable(void))
      313    ?total_physical_size@HeapStatistics@v8@@QAEIXZ (public: unsigned int __thiscall v8::HeapStatistics::total_physical_size(void))
      314    ?used_heap_size@HeapStatistics@v8@@QAEIXZ (public: unsigned int __thiscall v8::HeapStatistics::used_heap_size(void))
      315    __register_WebWorkerThreads_
               exported name: _register_WebWorkerThreads_
